
bomb:     file format elf64-x86-64

Contents of section .interp:
 0318 2f6c6962 36342f6c 642d6c69 6e75782d  /lib64/ld-linux-
 0328 7838362d 36342e73 6f2e3200           x86-64.so.2.    
Contents of section .note.gnu.property:
 0338 04000000 10000000 05000000 474e5500  ............GNU.
 0348 020000c0 04000000 03000000 00000000  ................
Contents of section .note.gnu.build-id:
 0358 04000000 14000000 03000000 474e5500  ............GNU.
 0368 9f0c5758 0312f9d4 df8b5009 1f3c8731  ..WX......P..<.1
 0378 3b2fb877                             ;/.w            
Contents of section .note.ABI-tag:
 037c 04000000 10000000 01000000 474e5500  ............GNU.
 038c 00000000 03000000 02000000 00000000  ................
Contents of section .gnu.hash:
 03a0 03000000 21000000 01000000 06000000  ....!...........
 03b0 0001a100 80011002 21000000 23000000  ........!...#...
 03c0 00000000 281d8c1c d165ce6d 66556110  ....(....e.mfUa.
 03d0 39f28b1c                             9...            
Contents of section .dynsym:
 03d8 00000000 00000000 00000000 00000000  ................
 03e8 00000000 00000000 cf000000 12000000  ................
 03f8 00000000 00000000 00000000 00000000  ................
 0408 b6000000 12000000 00000000 00000000  ................
 0418 00000000 00000000 7d000000 12000000  ........}.......
 0428 00000000 00000000 00000000 00000000  ................
 0438 7e010000 20000000 00000000 00000000  ~... ...........
 0448 00000000 00000000 0f000000 12000000  ................
 0458 00000000 00000000 00000000 00000000  ................
 0468 4d000000 12000000 00000000 00000000  M...............
 0478 00000000 00000000 38010000 12000000  ........8.......
 0488 00000000 00000000 00000000 00000000  ................
 0498 76000000 12000000 00000000 00000000  v...............
 04a8 00000000 00000000 52000000 12000000  ........R.......
 04b8 00000000 00000000 00000000 00000000  ................
 04c8 dd000000 12000000 00000000 00000000  ................
 04d8 00000000 00000000 fd000000 12000000  ................
 04e8 00000000 00000000 00000000 00000000  ................
 04f8 8e000000 12000000 00000000 00000000  ................
 0508 00000000 00000000 26010000 12000000  ........&.......
 0518 00000000 00000000 00000000 00000000  ................
 0528 70000000 12000000 00000000 00000000  p...............
 0538 00000000 00000000 46000000 12000000  ........F.......
 0548 00000000 00000000 00000000 00000000  ................
 0558 e3000000 12000000 00000000 00000000  ................
 0568 00000000 00000000 a8000000 12000000  ................
 0578 00000000 00000000 00000000 00000000  ................
 0588 9a010000 20000000 00000000 00000000  .... ...........
 0598 00000000 00000000 69000000 12000000  ........i.......
 05a8 00000000 00000000 00000000 00000000  ................
 05b8 08000000 12000000 00000000 00000000  ................
 05c8 00000000 00000000 2e000000 12000000  ................
 05d8 00000000 00000000 00000000 00000000  ................
 05e8 16000000 12000000 00000000 00000000  ................
 05f8 00000000 00000000 28000000 12000000  ........(.......
 0608 00000000 00000000 00000000 00000000  ................
 0618 f1000000 12000000 00000000 00000000  ................
 0628 00000000 00000000 23000000 12000000  ........#.......
 0638 00000000 00000000 00000000 00000000  ................
 0648 3e000000 12000000 00000000 00000000  >...............
 0658 00000000 00000000 93000000 12000000  ................
 0668 00000000 00000000 00000000 00000000  ................
 0678 a9010000 20000000 00000000 00000000  .... ...........
 0688 00000000 00000000 03010000 12000000  ................
 0698 00000000 00000000 00000000 00000000  ................
 06a8 c1000000 12000000 00000000 00000000  ................
 06b8 00000000 00000000 18010000 12000000  ................
 06c8 00000000 00000000 00000000 00000000  ................
 06d8 01000000 12000000 00000000 00000000  ................
 06e8 00000000 00000000 a1000000 11001a00  ................
 06f8 80560000 00000000 08000000 00000000  .V..............
 0708 09010000 22000000 00000000 00000000  ...."...........
 0718 00000000 00000000 63000000 11001a00  ........c.......
 0728 90560000 00000000 08000000 00000000  .V..............
 0738 d6000000 11001a00 a0560000 00000000  .........V......
 0748 08000000 00000000                    ........        
Contents of section .dynstr:
 0750 00736f63 6b657400 66666c75 73680073  .socket.fflush.s
 0760 74726370 79005f5f 7072696e 74665f63  trcpy.__printf_c
 0770 686b0065 78697400 666f7065 6e005f5f  hk.exit.fopen.__
 0780 69736f63 39395f73 7363616e 6600636f  isoc99_sscanf.co
 0790 6e6e6563 74007369 676e616c 00707574  nnect.signal.put
 07a0 73005f5f 73746163 6b5f6368 6b5f6661  s.__stack_chk_fa
 07b0 696c0073 7464696e 00737472 746f6c00  il.stdin.strtol.
 07c0 66676574 73007374 726c656e 005f5f65  fgets.strlen.__e
 07d0 72726e6f 5f6c6f63 6174696f 6e007265  rrno_location.re
 07e0 6164005f 5f667072 696e7466 5f63686b  ad.__fprintf_chk
 07f0 00737464 6f757400 5f5f6d65 6d6d6f76  .stdout.__memmov
 0800 655f6368 6b007374 72636173 65636d70  e_chk.strcasecmp
 0810 005f5f63 74797065 5f625f6c 6f630067  .__ctype_b_loc.g
 0820 6574656e 76007374 64657272 00616c61  etenv.stderr.ala
 0830 726d0067 6574686f 73746279 6e616d65  rm.gethostbyname
 0840 00676574 686f7374 6e616d65 00636c6f  .gethostname.clo
 0850 73650073 6c656570 005f5f63 78615f66  se.sleep.__cxa_f
 0860 696e616c 697a6500 5f5f7370 72696e74  inalize.__sprint
 0870 665f6368 6b005f5f 6c696263 5f737461  f_chk.__libc_sta
 0880 72745f6d 61696e00 77726974 65006c69  rt_main.write.li
 0890 62632e73 6f2e3600 474c4942 435f322e  bc.so.6.GLIBC_2.
 08a0 3300474c 4942435f 322e3700 474c4942  3.GLIBC_2.7.GLIB
 08b0 435f322e 332e3400 474c4942 435f322e  C_2.3.4.GLIBC_2.
 08c0 3400474c 4942435f 322e322e 35005f49  4.GLIBC_2.2.5._I
 08d0 544d5f64 65726567 69737465 72544d43  TM_deregisterTMC
 08e0 6c6f6e65 5461626c 65005f5f 676d6f6e  loneTable.__gmon
 08f0 5f737461 72745f5f 005f4954 4d5f7265  _start__._ITM_re
 0900 67697374 6572544d 436c6f6e 65546162  gisterTMCloneTab
 0910 6c6500                               le.             
Contents of section .gnu.version:
 0914 00000200 02000200 00000200 02000200  ................
 0924 02000300 02000200 02000200 02000200  ................
 0934 02000400 00000200 02000500 04000200  ................
 0944 02000200 02000400 00000200 06000400  ................
 0954 02000200 02000200 0200               ..........      
Contents of section .gnu.version_r:
 0960 01000500 3e010000 10000000 00000000  ....>...........
 0970 1369690d 00000600 48010000 10000000  .ii.....H.......
 0980 1769690d 00000500 52010000 10000000  .ii.....R.......
 0990 74196909 00000400 5c010000 10000000  t.i.....\.......
 09a0 1469690d 00000300 68010000 10000000  .ii.....h.......
 09b0 751a6909 00000200 72010000 00000000  u.i.....r.......
Contents of section .rela.dyn:
 09c0 e04c0000 00000000 08000000 00000000  .L..............
 09d0 a0140000 00000000 e84c0000 00000000  .........L......
 09e0 08000000 00000000 60140000 00000000  ........`.......
 09f0 08500000 00000000 08000000 00000000  .P..............
 0a00 08500000 00000000 58510000 00000000  .P......XQ......
 0a10 08000000 00000000 70510000 00000000  ........pQ......
 0a20 60510000 00000000 08000000 00000000  `Q..............
 0a30 90510000 00000000 78510000 00000000  .Q......xQ......
 0a40 08000000 00000000 f0510000 00000000  .........Q......
 0a50 80510000 00000000 08000000 00000000  .Q..............
 0a60 b0510000 00000000 98510000 00000000  .Q.......Q......
 0a70 08000000 00000000 d0510000 00000000  .........Q......
 0a80 a0510000 00000000 08000000 00000000  .Q..............
 0a90 10520000 00000000 b8510000 00000000  .R.......Q......
 0aa0 08000000 00000000 b0500000 00000000  .........P......
 0ab0 c0510000 00000000 08000000 00000000  .Q..............
 0ac0 70500000 00000000 d8510000 00000000  pP.......Q......
 0ad0 08000000 00000000 10500000 00000000  .........P......
 0ae0 e0510000 00000000 08000000 00000000  .Q..............
 0af0 d0500000 00000000 f8510000 00000000  .P.......Q......
 0b00 08000000 00000000 30500000 00000000  ........0P......
 0b10 00520000 00000000 08000000 00000000  .R..............
 0b20 90500000 00000000 18520000 00000000  .P.......R......
 0b30 08000000 00000000 50500000 00000000  ........PP......
 0b40 20520000 00000000 08000000 00000000   R..............
 0b50 f0500000 00000000 38520000 00000000  .P......8R......
 0b60 08000000 00000000 40520000 00000000  ........@R......
 0b70 48520000 00000000 08000000 00000000  HR..............
 0b80 50520000 00000000 58520000 00000000  PR......XR......
 0b90 08000000 00000000 60520000 00000000  ........`R......
 0ba0 68520000 00000000 08000000 00000000  hR..............
 0bb0 70520000 00000000 78520000 00000000  pR......xR......
 0bc0 08000000 00000000 10510000 00000000  .........Q......
 0bd0 80520000 00000000 08000000 00000000  .R..............
 0be0 0f340000 00000000 d84f0000 00000000  .4.......O......
 0bf0 06000000 04000000 00000000 00000000  ................
 0c00 e04f0000 00000000 06000000 0d000000  .O..............
 0c10 00000000 00000000 e84f0000 00000000  .........O......
 0c20 06000000 12000000 00000000 00000000  ................
 0c30 f04f0000 00000000 06000000 1c000000  .O..............
 0c40 00000000 00000000 f84f0000 00000000  .........O......
 0c50 06000000 22000000 00000000 00000000  ...."...........
 0c60 80560000 00000000 05000000 21000000  .V..........!...
 0c70 00000000 00000000 90560000 00000000  .........V......
 0c80 05000000 23000000 00000000 00000000  ....#...........
 0c90 a0560000 00000000 05000000 24000000  .V..........$...
 0ca0 00000000 00000000                    ........        
Contents of section .rela.plt:
 0ca8 f84e0000 00000000 07000000 01000000  .N..............
 0cb8 00000000 00000000 004f0000 00000000  .........O......
 0cc8 07000000 02000000 00000000 00000000  ................
 0cd8 084f0000 00000000 07000000 03000000  .O..............
 0ce8 00000000 00000000 104f0000 00000000  .........O......
 0cf8 07000000 05000000 00000000 00000000  ................
 0d08 184f0000 00000000 07000000 06000000  .O..............
 0d18 00000000 00000000 204f0000 00000000  ........ O......
 0d28 07000000 07000000 00000000 00000000  ................
 0d38 284f0000 00000000 07000000 08000000  (O..............
 0d48 00000000 00000000 304f0000 00000000  ........0O......
 0d58 07000000 09000000 00000000 00000000  ................
 0d68 384f0000 00000000 07000000 0a000000  8O..............
 0d78 00000000 00000000 404f0000 00000000  ........@O......
 0d88 07000000 0b000000 00000000 00000000  ................
 0d98 484f0000 00000000 07000000 0c000000  HO..............
 0da8 00000000 00000000 504f0000 00000000  ........PO......
 0db8 07000000 0e000000 00000000 00000000  ................
 0dc8 584f0000 00000000 07000000 0f000000  XO..............
 0dd8 00000000 00000000 604f0000 00000000  ........`O......
 0de8 07000000 10000000 00000000 00000000  ................
 0df8 684f0000 00000000 07000000 11000000  hO..............
 0e08 00000000 00000000 704f0000 00000000  ........pO......
 0e18 07000000 13000000 00000000 00000000  ................
 0e28 784f0000 00000000 07000000 14000000  xO..............
 0e38 00000000 00000000 804f0000 00000000  .........O......
 0e48 07000000 15000000 00000000 00000000  ................
 0e58 884f0000 00000000 07000000 16000000  .O..............
 0e68 00000000 00000000 904f0000 00000000  .........O......
 0e78 07000000 17000000 00000000 00000000  ................
 0e88 984f0000 00000000 07000000 18000000  .O..............
 0e98 00000000 00000000 a04f0000 00000000  .........O......
 0ea8 07000000 19000000 00000000 00000000  ................
 0eb8 a84f0000 00000000 07000000 1a000000  .O..............
 0ec8 00000000 00000000 b04f0000 00000000  .........O......
 0ed8 07000000 1b000000 00000000 00000000  ................
 0ee8 b84f0000 00000000 07000000 1d000000  .O..............
 0ef8 00000000 00000000 c04f0000 00000000  .........O......
 0f08 07000000 1e000000 00000000 00000000  ................
 0f18 c84f0000 00000000 07000000 1f000000  .O..............
 0f28 00000000 00000000 d04f0000 00000000  .........O......
 0f38 07000000 20000000 00000000 00000000  .... ...........
Contents of section .init:
 1000 f30f1efa 4883ec08 488b05d9 3f000048  ....H...H...?..H
 1010 85c07402 ffd04883 c408c3             ..t...H....     
Contents of section .plt:
 1020 ff35c23e 0000f2ff 25c33e00 000f1f00  .5.>....%.>.....
 1030 f30f1efa 68000000 00f2e9e1 ffffff90  ....h...........
 1040 f30f1efa 68010000 00f2e9d1 ffffff90  ....h...........
 1050 f30f1efa 68020000 00f2e9c1 ffffff90  ....h...........
 1060 f30f1efa 68030000 00f2e9b1 ffffff90  ....h...........
 1070 f30f1efa 68040000 00f2e9a1 ffffff90  ....h...........
 1080 f30f1efa 68050000 00f2e991 ffffff90  ....h...........
 1090 f30f1efa 68060000 00f2e981 ffffff90  ....h...........
 10a0 f30f1efa 68070000 00f2e971 ffffff90  ....h......q....
 10b0 f30f1efa 68080000 00f2e961 ffffff90  ....h......a....
 10c0 f30f1efa 68090000 00f2e951 ffffff90  ....h......Q....
 10d0 f30f1efa 680a0000 00f2e941 ffffff90  ....h......A....
 10e0 f30f1efa 680b0000 00f2e931 ffffff90  ....h......1....
 10f0 f30f1efa 680c0000 00f2e921 ffffff90  ....h......!....
 1100 f30f1efa 680d0000 00f2e911 ffffff90  ....h...........
 1110 f30f1efa 680e0000 00f2e901 ffffff90  ....h...........
 1120 f30f1efa 680f0000 00f2e9f1 feffff90  ....h...........
 1130 f30f1efa 68100000 00f2e9e1 feffff90  ....h...........
 1140 f30f1efa 68110000 00f2e9d1 feffff90  ....h...........
 1150 f30f1efa 68120000 00f2e9c1 feffff90  ....h...........
 1160 f30f1efa 68130000 00f2e9b1 feffff90  ....h...........
 1170 f30f1efa 68140000 00f2e9a1 feffff90  ....h...........
 1180 f30f1efa 68150000 00f2e991 feffff90  ....h...........
 1190 f30f1efa 68160000 00f2e981 feffff90  ....h...........
 11a0 f30f1efa 68170000 00f2e971 feffff90  ....h......q....
 11b0 f30f1efa 68180000 00f2e961 feffff90  ....h......a....
 11c0 f30f1efa 68190000 00f2e951 feffff90  ....h......Q....
 11d0 f30f1efa 681a0000 00f2e941 feffff90  ....h......A....
 11e0 f30f1efa 681b0000 00f2e931 feffff90  ....h......1....
Contents of section .plt.got:
 11f0 f30f1efa f2ff25fd 3d00000f 1f440000  ......%.=....D..
Contents of section .plt.sec:
 1200 f30f1efa f2ff25ed 3c00000f 1f440000  ......%.<....D..
 1210 f30f1efa f2ff25e5 3c00000f 1f440000  ......%.<....D..
 1220 f30f1efa f2ff25dd 3c00000f 1f440000  ......%.<....D..
 1230 f30f1efa f2ff25d5 3c00000f 1f440000  ......%.<....D..
 1240 f30f1efa f2ff25cd 3c00000f 1f440000  ......%.<....D..
 1250 f30f1efa f2ff25c5 3c00000f 1f440000  ......%.<....D..
 1260 f30f1efa f2ff25bd 3c00000f 1f440000  ......%.<....D..
 1270 f30f1efa f2ff25b5 3c00000f 1f440000  ......%.<....D..
 1280 f30f1efa f2ff25ad 3c00000f 1f440000  ......%.<....D..
 1290 f30f1efa f2ff25a5 3c00000f 1f440000  ......%.<....D..
 12a0 f30f1efa f2ff259d 3c00000f 1f440000  ......%.<....D..
 12b0 f30f1efa f2ff2595 3c00000f 1f440000  ......%.<....D..
 12c0 f30f1efa f2ff258d 3c00000f 1f440000  ......%.<....D..
 12d0 f30f1efa f2ff2585 3c00000f 1f440000  ......%.<....D..
 12e0 f30f1efa f2ff257d 3c00000f 1f440000  ......%}<....D..
 12f0 f30f1efa f2ff2575 3c00000f 1f440000  ......%u<....D..
 1300 f30f1efa f2ff256d 3c00000f 1f440000  ......%m<....D..
 1310 f30f1efa f2ff2565 3c00000f 1f440000  ......%e<....D..
 1320 f30f1efa f2ff255d 3c00000f 1f440000  ......%]<....D..
 1330 f30f1efa f2ff2555 3c00000f 1f440000  ......%U<....D..
 1340 f30f1efa f2ff254d 3c00000f 1f440000  ......%M<....D..
 1350 f30f1efa f2ff2545 3c00000f 1f440000  ......%E<....D..
 1360 f30f1efa f2ff253d 3c00000f 1f440000  ......%=<....D..
 1370 f30f1efa f2ff2535 3c00000f 1f440000  ......%5<....D..
 1380 f30f1efa f2ff252d 3c00000f 1f440000  ......%-<....D..
 1390 f30f1efa f2ff2525 3c00000f 1f440000  ......%%<....D..
 13a0 f30f1efa f2ff251d 3c00000f 1f440000  ......%.<....D..
 13b0 f30f1efa f2ff2515 3c00000f 1f440000  ......%.<....D..
Contents of section .text:
 13c0 f30f1efa 31ed4989 d15e4889 e24883e4  ....1.I..^H..H..
 13d0 f050544c 8d05e618 0000488d 0d6f1800  .PTL......H..o..
 13e0 00488d3d c1000000 ff15f23b 0000f490  .H.=.......;....
 13f0 488d3d89 42000048 8d058242 00004839  H.=.B..H...B..H9
 1400 f8741548 8b05ce3b 00004885 c07409ff  .t.H...;..H..t..
 1410 e00f1f80 00000000 c30f1f80 00000000  ................
 1420 488d3d59 42000048 8d355242 00004829  H.=YB..H.5RB..H)
 1430 fe4889f0 48c1ee3f 48c1f803 4801c648  .H..H..?H...H..H
 1440 d1fe7414 488b05a5 3b000048 85c07408  ..t.H...;..H..t.
 1450 ffe0660f 1f440000 c30f1f80 00000000  ..f..D..........
 1460 f30f1efa 803d3d42 00000075 2b554883  .....==B...u+UH.
 1470 3d823b00 00004889 e5740c48 8b3d863b  =.;...H..t.H.=.;
 1480 0000e869 fdffffe8 64ffffff c6051542  ...i....d......B
 1490 0000015d c30f1f00 c30f1f80 00000000  ...]............
 14a0 f30f1efa e977ffff fff30f1e fa5383ff  .....w.......S..
 14b0 010f84f8 00000048 89f383ff 020f8521  .......H.......!
 14c0 01000048 8b7e0848 8d35361b 0000e85d  ...H.~.H.56....]
 14d0 feffff48 8905d641 00004885 c00f84df  ...H...A..H.....
 14e0 000000e8 ab060000 488d3d99 1b0000e8  ........H.=.....
 14f0 4cfdffff 488d3dcd 1b0000e8 40fdffff  L...H.=.....@...
 1500 e88e0900 004889c7 e8fa0000 00e8bc0a  .....H..........
 1510 0000488d 3ddf1b00 00e822fd ffffe870  ..H.=....."....p
 1520 09000048 89c7e800 010000e8 9e0a0000  ...H............
 1530 488d3d06 1b0000e8 04fdffff e8520900  H.=..........R..
 1540 004889c7 e8500100 00e8800a 0000488d  .H...P........H.
 1550 3d061b00 00e8e6fc ffffe834 09000048  =..........4...H
 1560 89c7e853 020000e8 620a0000 488d3db5  ...S....b...H.=.
 1570 1b0000e8 c8fcffff e8160900 004889c7  .............H..
 1580 e8aa0200 00e8440a 0000488d 3dd91a00  ......D...H.=...
 1590 00e8aafc ffffe8f8 08000048 89c7e81a  ...........H....
 15a0 030000e8 260a0000 b8000000 005bc348  ....&........[.H
 15b0 8b05da40 00004889 05f34000 00e921ff  ...@..H...@...!.
 15c0 ffff488b 4b08488b 13488d35 361a0000  ..H.K.H..H.56...
 15d0 bf010000 00e846fd ffffbf08 000000e8  ......F.........
 15e0 6cfdffff 488b1648 8d35351a 0000bf01  l...H..H.55.....
 15f0 000000b8 00000000 e823fdff ffbf0800  .........#......
 1600 0000e849 fdfffff3 0f1efa48 83ec0848  ...I.......H...H
 1610 8d35361b 0000e818 05000085 c0750548  .56..........u.H
 1620 83c408c3 e8e30700 00ebf4f3 0f1efa55  ...............U
 1630 534883ec 2864488b 04252800 00004889  SH..(dH..%(...H.
 1640 44241831 c04889e6 e8010800 00833c24  D$.1.H........<$
 1650 01750a48 89e3488d 6c2414eb 10e8aa07  .u.H..H.l$......
 1660 0000ebef 4883c304 4839eb74 108b0301  ....H...H9.t....
 1670 c0394304 74eee891 070000eb e7488b44  .9C.t........H.D
 1680 24186448 2b042528 00000075 074883c4  $.dH+.%(...u.H..
 1690 285b5dc3 e8d7fbff fff30f1e fa4883ec  ([]..........H..
 16a0 1864488b 04252800 00004889 44240831  .dH..%(...H.D$.1
 16b0 c0488d4c 24044889 e2488d35 f51c0000  .H.L$.H..H.5....
 16c0 e84bfcff ff83f801 7e1e833c 24070f87  .K......~..<$...
 16d0 9a000000 8b042448 8d15921a 00004863  ......$H......Hc
 16e0 04824801 d03effe0 e81f0700 00ebdbb8  ..H..>..........
 16f0 b4020000 2da90000 00058203 00002dbf  ....-.........-.
 1700 00000005 bf000000 2dbf0000 0005bf00  ........-.......
 1710 00002dbf 00000083 3c24057f 06394424  ..-.....<$...9D$
 1720 047405e8 e4060000 488b4424 0864482b  .t......H.D$.dH+
 1730 04252800 00007542 4883c418 c3b80000  .%(...uBH.......
 1740 0000ebb0 b8000000 00ebaeb8 00000000  ................
 1750 ebacb800 000000eb aab80000 0000eba8  ................
 1760 b8000000 00eba6b8 00000000 eba4e899  ................
 1770 060000b8 00000000 eb9de8f1 fafffff3  ................
 1780 0f1efab8 00000000 85ff7e2d 41545553  ..........~-ATUS
 1790 89fb89f5 89f083ff 0174198d 7fffe8dc  .........t......
 17a0 ffffff44 8d24288d 7bfe89ee e8ceffff  ...D.$(.{.......
 17b0 ff4401e0 5b5d415c c3c3f30f 1efa4883  .D..[]A\......H.
 17c0 ec186448 8b042528 00000048 89442408  ..dH..%(...H.D$.
 17d0 31c04889 e1488d54 2404488d 35d41b00  1.H..H.T$.H.5...
 17e0 00e82afb ffff83f8 02750b8b 042483e8  ..*......u...$..
 17f0 0283f802 7605e811 0600008b 3424bf07  ....v.......4$..
 1800 000000e8 77ffffff 39442404 7515488b  ....w...9D$.u.H.
 1810 44240864 482b0425 28000000 750c4883  D$.dH+.%(...u.H.
 1820 c418c3e8 e4050000 ebe4e841 fafffff3  ...........A....
 1830 0f1efa53 4883ec10 4889fb64 488b0425  ...SH...H..dH..%
 1840 28000000 48894424 0831c0e8 c2020000  (...H.D$.1......
 1850 83f80675 55b80000 0000488d 0d2f1900  ...uU.....H../..
 1860 000fb614 0383e20f 0fb61411 88540401  .............T..
 1870 4883c001 4883f806 75e7c644 24070048  H...H...u..D$..H
 1880 8d7c2401 488d35de 180000e8 a3020000  .|$.H.5.........
 1890 85c0751d 488b4424 0864482b 04252800  ..u.H.D$.dH+.%(.
 18a0 00007514 4883c410 5bc3e85d 050000eb  ..u.H...[..]....
 18b0 a4e85605 0000ebdc e8b3f9ff fff30f1e  ..V.............
 18c0 fa415641 55415455 534883ec 6064488b  .AVAUATUSH..`dH.
 18d0 04252800 00004889 44245831 c04989e5  .%(...H.D$X1.I..
 18e0 4c89eee8 66050000 41be0100 00004989  L...f...A.....I.
 18f0 e4eb28e8 14050000 eb304883 c30183fb  ..(......0H.....
 1900 057f1041 8b049c39 450075ee e8fb0400  ...A...9E.u.....
 1910 00ebe749 83c60149 83c5044c 89ed418b  ...I...I...L..A.
 1920 450083e8 0183f805 77c94183 fe057f05  E.......w.A.....
 1930 4c89f3eb cebe0000 00008b0c b4b80100  L...............
 1940 0000488d 15e73800 0083f901 7e0b488b  ..H...8.....~.H.
 1950 520883c0 0139c875 f5488954 f4204883  R....9.u.H.T. H.
 1960 c6014883 fe0675d2 488b5c24 20488b44  ..H...u.H.\$ H.D
 1970 24284889 4308488b 54243048 89500848  $(H.C.H.T$0H.P.H
 1980 8b442438 48894208 488b5424 40488950  .D$8H.B.H.T$@H.P
 1990 08488b44 24484889 420848c7 40080000  .H.D$HH.B.H.@...
 19a0 0000bd05 000000eb 09488b5b 0883ed01  .........H.[....
 19b0 7411488b 43088b00 39037ded e84b0400  t.H.C...9.}..K..
 19c0 00ebe648 8b442458 64482b04 25280000  ...H.D$XdH+.%(..
 19d0 00750d48 83c4605b 5d415c41 5d415ec3  .u.H..`[]A\A]A^.
 19e0 e88bf8ff fff30f1e fa4885ff 74324883  .........H..t2H.
 19f0 ec088b17 39f27f0c b8000000 00751248  ....9........u.H
 1a00 83c408c3 488b7f08 e8d8ffff ff01c0eb  ....H...........
 1a10 ee488b7f 10e8cbff ffff8d44 0001ebdf  .H.........D....
 1a20 b8ffffff ffc3f30f 1efa53e8 63040000  ..........S.c...
 1a30 4889c7ba 0a000000 be000000 00e8aef8  H...............
 1a40 ffff4889 c38d40ff 3de80300 00772689  ..H...@.=....w&.
 1a50 de488d3d f8360000 e888ffff ff83f806  .H.=.6..........
 1a60 751a488d 3d371700 00e8d2f7 ffffe85b  u.H.=7.........[
 1a70 0500005b c3e89203 0000ebd3 e88b0300  ...[............
 1a80 00ebdff3 0f1efa50 584883ec 08488d3d  .......PXH...H.=
 1a90 34170000 e8a7f7ff ffbf0300 0000e8dd  4...............
 1aa0 f8ffff48 8d358718 0000bf01 000000b8  ...H.5..........
 1ab0 00000000 e867f8ff ff488b3d c03b0000  .....g...H.=.;..
 1ac0 e83bf8ff ffbf0100 0000e8b1 f8ffff48  .;.............H
 1ad0 8d3d6318 0000e865 f7ffffbf 10000000  .=c....e........
 1ae0 e86bf8ff fff30f1e fa505848 83ec0848  .k.......PXH...H
 1af0 89fa488d 35481800 00bf0100 0000b800  ..H.5H..........
 1b00 000000e8 18f8ffff bf080000 00e83ef8  ..............>.
 1b10 fffff30f 1efa803f 007412b8 00000000  .......?.t......
 1b20 4883c701 83c00180 3f0075f4 c3b80000  H.......?.u.....
 1b30 0000c3f3 0f1efa41 54555348 89fb4889  .......ATUSH..H.
 1b40 f5e8ccff ffff4189 c44889ef e8c1ffff  ......A..H......
 1b50 ff89c2b8 01000000 4139d475 310fb613  ........A9.u1...
 1b60 84d2741e b8000000 00385405 00751a48  ..t......8T..u.H
 1b70 83c0010f b6140384 d275eeb8 00000000  .........u......
 1b80 eb0cb800 000000eb 05b80100 00005b5d  ..............[]
 1b90 415cc3f3 0f1efa55 534881ec 00100000  A\.....USH......
 1ba0 48830c24 004881ec 00100000 48830c24  H..$.H......H..$
 1bb0 004883ec 5864488b 04252800 00004889  .H..XdH..%(...H.
 1bc0 84244820 000031c0 488d35b4 feffffbf  .$H ..1.H.5.....
 1bd0 02000000 e8e7f6ff ff4889e7 be400000  .........H...@..
 1be0 00e85af7 ffff85c0 755a488b 3d8f3600  ..Z.....uZH.=.6.
 1bf0 00488d1d 90360000 4889e548 85ff7419  .H...6..H..H..t.
 1c00 4889eee8 08f6ffff 85c0740d 4883c308  H.........t.H...
 1c10 488b7bf8 4885ff75 e7488d7c 2440e8b2  H.{.H..u.H.|$@..
 1c20 0d000085 c0783348 8b842448 20000064  .....x3H..$H ..d
 1c30 482b0425 28000000 75454881 c4582000  H+.%(...uEH..X .
 1c40 005b5dc3 488d3db5 150000e8 f0f5ffff  .[].H.=.........
 1c50 bf080000 00e8f6f6 ffff488d 54244048  ..........H.T$@H
 1c60 8d35ec16 0000bf01 000000b8 00000000  .5..............
 1c70 e8abf6ff ffbf0800 0000e8d1 f6ffffe8  ................
 1c80 ecf5ffff f30f1efa c3f30f1e fa555348  .............USH
 1c90 83ec0848 89fd0fb6 5d0084db 741ee8ed  ...H....]...t...
 1ca0 f6ffff48 83c50148 0fbedb48 8b00f644  ...H...H...H...D
 1cb0 58012075 e1b80000 0000eb05 b8010000  X. u............
 1cc0 004883c4 085b5dc3 f30f1efa 55534883  .H...[].....USH.
 1cd0 ec08488d 2d473a00 00486305 303a0000  ..H.-G:..Hc.0:..
 1ce0 488d3c80 48c1e704 4801ef48 8b15be39  H.<.H...H..H...9
 1cf0 0000be50 000000e8 b4f5ffff 4889c348  ...P........H..H
 1d00 85c0740c 4889c7e8 7dffffff 85c075c9  ..t.H...}.....u.
 1d10 4889d848 83c4085b 5dc3f30f 1efa534c  H..H...[].....SL
 1d20 8d9c2400 c0ffff48 81ec0010 00004883  ..$....H......H.
 1d30 0c24004c 39dc75ef 4883ec10 64488b04  .$.L9.u.H...dH..
 1d40 25280000 00488984 24084000 0031c08b  %(...H..$.@..1..
 1d50 15bb3900 008d42ff 4898488d 048048c1  ..9...B.H.H...H.
 1d60 e004488d 0db73900 004801c8 85ff4c8d  ..H...9..H....L.
 1d70 0df71500 00488d0d f8150000 4c0f44c9  .....H......L.D.
 1d80 4889e350 52448b05 b8330000 488d0dea  H..PRD...3..H...
 1d90 150000ba 00200000 be010000 004889df  ..... .......H..
 1da0 b8000000 00e8f6f5 ffff4c8d 84241020  ..........L..$. 
 1db0 0000b900 00000048 89da488d 355f3300  .......H..H.5_3.
 1dc0 00488d3d 70330000 e8fd0d00 004889dc  .H.=p3.......H..
 1dd0 85c0781c 488b8424 08400000 64482b04  ..x.H..$.@..dH+.
 1de0 25280000 00752048 81c41040 00005bc3  %(...u H...@..[.
 1df0 488dbc24 00200000 e843f4ff ffbf0000  H..$. ...C......
 1e00 0000e849 f5ffffe8 64f4ffff f30f1efa  ...I....d.......
 1e10 50584883 ec08488d 3d6c1500 00e81ef4  PXH...H.=l......
 1e20 ffff488d 3d691500 00e812f4 ffffbf00  ..H.=i..........
 1e30 000000e8 e2feffff 488d3df9 130000e8  ........H.=.....
 1e40 fcf3ffff bf080000 00e802f5 fffff30f  ................
 1e50 1efa4883 ec084889 f2488d4e 04488d46  ..H...H..H.N.H.F
 1e60 1450488d 4610504c 8d4e0c4c 8d460848  .PH.F.PL.N.L.F.H
 1e70 8d353315 0000b800 000000e8 90f4ffff  .53.............
 1e80 4883c410 83f8057e 054883c4 08c3e879  H......~.H.....y
 1e90 fffffff3 0f1efa55 534883ec 08b80000  .......USH......
 1ea0 0000e821 feffff48 85c07460 8b2d5e38  ...!...H..t`.-^8
 1eb0 00004863 c5488d1c 8048c1e3 04488d05  ..Hc.H...H...H..
 1ec0 5c380000 4801c348 89dfe891 f3ffff83  \8..H..H........
 1ed0 f84e0f8f ac000000 83e80148 984863d5  .N.........H.Hc.
 1ee0 488d1492 4889d148 c1e10448 8d152e38  H...H..H...H...8
 1ef0 00004801 cac60402 0083c501 892d0e38  ..H..........-.8
 1f00 00004889 d84883c4 085b5dc3 488b057d  ..H..H...[].H..}
 1f10 37000048 39059637 0000741b 488d3db6  7..H9..7..t.H.=.
 1f20 140000e8 d8f2ffff 4885c074 20bf0000  ........H..t ...
 1f30 0000e819 f4ffff48 8d3d7d14 0000e8fd  .......H.=}.....
 1f40 f2ffffbf 08000000 e803f4ff ff488b05  .............H..
 1f50 3c370000 48890555 370000b8 00000000  <7..H..U7.......
 1f60 e863fdff ff4885c0 0f853eff ffff488d  .c...H....>...H.
 1f70 3d461400 00e8c6f2 ffffbf00 000000e8  =F..............
 1f80 ccf3ffff 488d3d59 140000e8 b0f2ffff  ....H.=Y........
 1f90 8b057a37 00008d50 01891571 37000048  ..z7...P...q7..H
 1fa0 98486bc0 50488d15 74370000 48be2a2a  .Hk.PH..t7..H.**
 1fb0 2a747275 6e6348bf 61746564 2a2a2a00  *truncH.ated***.
 1fc0 48893402 48897c02 08e83efe fffff30f  H.4.H.|...>.....
 1fd0 1efa4883 ec786448 8b042528 00000048  ..H..xdH..%(...H
 1fe0 89442468 31c0bf01 000000e8 2afdffff  .D$h1.......*...
 1ff0 833d1937 00000674 19488b44 24686448  .=.7...t.H.D$hdH
 2000 2b042528 0000000f 85840000 004883c4  +.%(.........H..
 2010 78c3488d 4c240c48 8d542408 4c8d4424  x.H.L$.H.T$.L.D$
 2020 10488d35 d7130000 488d3de1 370000b8  .H.5....H.=.7...
 2030 00000000 e8d7f2ff ff83f803 741a488d  ............t.H.
 2040 3d7b1200 00e8f6f1 ffff488d 3d9f1200  ={........H.=...
 2050 00e8eaf1 ffffeba1 488d7c24 10488d35  ........H.|$.H.5
 2060 a4130000 e8cafaff ff85c075 d1488d3d  ...........u.H.=
 2070 ec110000 e8c7f1ff ff488d3d 08120000  .........H.=....
 2080 e8bbf1ff ffb80000 0000e897 f9ffffeb  ................
 2090 ade8daf1 fffff30f 1efa5058 4883ec08  ..........PXH...
 20a0 b9000000 00488d15 74130000 be010000  .....H..t.......
 20b0 00488b3d e8350000 b8000000 00e8aef2  .H.=.5..........
 20c0 ffffbf01 000000e8 84f2ffff 41564155  ............AVAU
 20d0 41545553 4989f448 83fa010f 86920000  ATUSI..H........
 20e0 004889fb 4c8d7416 ff41bd01 00000048  .H..L.t..A.....H
 20f0 8d6f10eb 56e826f1 ffff8338 047555ba  .o..V.&....8.uU.
 2100 00200000 4889ee8b 3be892f1 ffff89c2  . ..H...;.......
 2110 89430485 c078de85 c0744248 896b0848  .C...x...tBH.k.H
 2120 8b43080f b6084883 c0014889 430883ea  .C....H...H.C...
 2130 01895304 4983c401 41884c24 ff80f90a  ..S.I...A.L$....
 2140 743c4183 c5014d39 f474308b 530485d2  t<A...M9.t0.S...
 2150 7eadebcb 48c7c0ff ffffffeb 05b80000  ~...H...........
 2160 000085c0 7529b800 00000041 83fd0175  ....u).....A...u
 2170 0deb1341 bd010000 00eb034d 89f441c6  ...A.......M..A.
 2180 04240049 63c55b5d 415c415d 415ec348  .$.Ic.[]A\A]A^.H
 2190 c7c0ffff ffffebee f30f1efa 41574156  ............AWAV
 21a0 41554154 55534c8d 9c240060 ffff4881  AUATUSL..$.`..H.
 21b0 ec001000 0048830c 24004c39 dc75ef48  .....H..$.L9.u.H
 21c0 83ec6849 89fd89f5 48891424 48894c24  ..hI....H..$H.L$
 21d0 084c8944 24184c89 4c241048 8b9c24a0  .L.D$.L.L$.H..$.
 21e0 a000004c 8bbc24a8 a0000064 488b0425  ...L..$....dH..%
 21f0 28000000 48898424 58a00000 31c0c744  (...H..$X...1..D
 2200 242c0000 0000ba00 000000be 01000000  $,..............
 2210 bf020000 00e896f1 ffff85c0 0f880401  ................
 2220 00004189 c44c89ef e8a3f0ff ff4885c0  ..A..L.......H..
 2230 0f844001 00004c8d 6c243048 c7442430  ..@...L.l$0H.D$0
 2240 00000000 48c74424 38000000 0066c744  ....H.D$8....f.D
 2250 24300200 48635014 488b4018 488d7c24  $0..HcP.H.@.H.|$
 2260 34b90c00 0000488b 30e872f0 ffff66c1  4.....H.0.r...f.
 2270 c5086689 6c2432ba 10000000 4c89ee44  ..f.l$2.....L..D
 2280 89e7e8d9 f0ffff85 c00f8852 01000048  ...........R...H
 2290 89dfe8c9 efffff48 89c5488b 3c24e8bd  .......H..H.<$..
 22a0 efffff49 89c6488b 7c2408e8 b0efffff  ...I..H.|$......
 22b0 4989c548 8b7c2410 e8a3efff ff4889c2  I..H.|$......H..
 22c0 4b8d842e 80000000 4801d048 8d546d00  K.......H..H.Tm.
 22d0 4801d048 3d002000 000f875f 01000048  H..H=. ...._...H
 22e0 8d942450 400000b9 00040000 b8000000  ..$P@...........
 22f0 004889d7 f348ab48 89dfe861 efffff85  .H...H.H...a....
 2300 c00f840d 0500008d 40ff4c8d 6c030148  ........@.L.l..H
 2310 8dac2450 40000049 bed9ff00 00000020  ..$P@..I....... 
 2320 00e9a601 000048b8 4572726f 723a2043  ......H.Error: C
 2330 48ba6c69 656e7420 756e4989 07498957  H.lient unI..I.W
 2340 0848b861 626c6520 746f2048 ba637265  .H.able to H.cre
 2350 61746520 73498947 10498957 1841c747  ate sI.G.I.W.A.G
 2360 206f636b 656641c7 47247400 b8ffffff   ockefA.G$t.....
 2370 ffe91603 000048b8 4572726f 723a2044  ......H.Error: D
 2380 48ba4e53 20697320 756e4989 07498957  H.NS is unI..I.W
 2390 0848b861 626c6520 746f2048 ba726573  .H.able to H.res
 23a0 6f6c7665 20498947 10498957 1848b873  olve I.G.I.W.H.s
 23b0 65727665 72206149 89472041 c7472864  erver aI.G A.G(d
 23c0 64726566 41c7472c 737341c6 472e0044  drefA.G,ssA.G..D
 23d0 89e7e8b9 eeffffb8 ffffffff e9ab0200  ................
 23e0 0048b845 72726f72 3a205548 ba6e6162  .H.Error: UH.nab
 23f0 6c652074 6f498907 49895708 48b82063  le toI..I.W.H. c
 2400 6f6e6e65 637448ba 20746f20 74686520  onnectH. to the 
 2410 49894710 49895718 41c74720 73657276  I.G.I.W.A.G serv
 2420 6641c747 24657241 c6472600 4489e7e8  fA.G$erA.G&.D...
 2430 5ceeffff b8ffffff ffe94e02 000048b8  \.........N...H.
 2440 4572726f 723a2052 48ba6573 756c7420  Error: RH.esult 
 2450 73744989 07498957 0848b872 696e6720  stI..I.W.H.ring 
 2460 746f6f48 ba206c61 7267652e 20498947  tooH. large. I.G
 2470 10498957 1848b849 6e637265 61736548  .I.W.H.IncreaseH
 2480 ba205355 424d4954 52498947 20498957  . SUBMITRI.G I.W
 2490 2848b85f 4d415842 55460049 89473044  (H._MAXBUF.I.G0D
 24a0 89e7e8e9 edffffb8 ffffffff e9db0100  ................
 24b0 00490fa3 c6732144 88450048 8d6d0148  .I...s!D.E.H.m.H
 24c0 83c3014c 39eb0f84 48030000 440fb603  ...L9...H...D...
 24d0 418d40d6 3c3576d9 4489c083 e0df83e8  A.@.<5v.D.......
 24e0 413c1976 d24180f8 20746341 8d40e03c  A<.v.A.. tcA.@.<
 24f0 5f760a41 80f8090f 858a0200 00488dbc  _v.A.........H..
 2500 24508000 00450fb6 c0488d0d e60f0000  $P...E...H......
 2510 ba080000 00be0100 0000b800 000000e8  ................
 2520 7ceeffff 0fb68424 50800000 8845000f  |......$P....E..
 2530 b6842451 80000088 45010fb6 84245280  ..$Q....E....$R.
 2540 00008845 02488d6d 03e971ff ffffc645  ...E.H.m..q....E
 2550 002b488d 6d01e964 ffffff48 01c54829  .+H.m..d...H..H)
 2560 c30f8418 03000048 89da4889 ee4489e7  .......H..H..D..
 2570 e8dbecff ff4885c0 7fe1e8a1 ecffff83  .....H..........
 2580 38040f85 a0010000 4c89e8eb ce48b845  8.......L....H.E
 2590 72726f72 3a204348 ba6c6965 6e742075  rror: CH.lient u
 25a0 6e498907 49895708 48b86162 6c652074  nI..I.W.H.able t
 25b0 6f2048ba 72656164 20666972 49894710  o H.read firI.G.
 25c0 49895718 48b87374 20686561 646548ba  I.W.H.st headeH.
 25d0 72206672 6f6d2073 49894720 49895728  r from sI.G I.W(
 25e0 41c74730 65727665 6641c747 34720044  A.G0ervefA.G4r.D
 25f0 89e7e899 ecffffb8 ffffffff e98b0000  ................
 2600 004c8d8c 24508000 00488d0d 380e0000  .L..$P...H..8...
 2610 48c7c2ff ffffffbe 01000000 4c89ffb8  H...........L...
 2620 00000000 e877edff ff4489e7 e85fecff  .....w...D..._..
 2630 ffb8ffff ffffeb54 488db424 50200000  .......TH..$P ..
 2640 488d7c24 40ba0020 0000e87d faffff48  H.|$@.. ...}...H
 2650 85c07e61 488db424 50200000 4c89ffe8  ..~aH..$P ..L...
 2660 ccebffff 4489e7e8 24ecffff b9030000  ....D...$.......
 2670 00488d3d 990e0000 4c89fef3 a60f97c0  .H.=....L.......
 2680 1c0084c0 0f95c00f b6c0f7d8 488b8c24  ............H..$
 2690 58a00000 64482b0c 25280000 000f85ff  X...dH+.%(......
 26a0 02000048 81c468a0 00005b5d 415c415d  ...H..h...[]A\A]
 26b0 415e415f c348b845 72726f72 3a204348  A^A_.H.Error: CH
 26c0 ba6c6965 6e742075 6e498907 49895708  .lient unI..I.W.
 26d0 48b86162 6c652074 6f2048ba 72656164  H.able to H.read
 26e0 20737461 49894710 49895718 48b87475   staI.G.I.W.H.tu
 26f0 73206d65 737348ba 61676520 66726f6d  s messH.age from
 2700 49894720 49895728 48b82073 65727665  I.G I.W(H. serve
 2710 72004989 47304489 e7e872eb ffffb8ff  r.I.G0D...r.....
 2720 ffffffe9 64ffffff 48b84572 726f723a  ....d...H.Error:
 2730 204348ba 6c69656e 7420756e 49890749   CH.lient unI..I
 2740 89570848 b861626c 6520746f 2048ba77  .W.H.able to H.w
 2750 72697465 20746f49 89471049 89571848  rite toI.G.I.W.H
 2760 b8207468 65207365 72498947 2041c747  . the serI.G A.G
 2770 28766572 004489e7 e813ebff ffb8ffff  (ver.D..........
 2780 ffffe905 ffffff48 b8457272 6f723a20  .......H.Error: 
 2790 5248ba65 73756c74 20737449 89074989  RH.esult stI..I.
 27a0 570848b8 72696e67 20636f6e 48ba7461  W.H.ring conH.ta
 27b0 696e7320 616e4989 47104989 571848b8  ins anI.G.I.W.H.
 27c0 20696c6c 6567616c 48ba206f 7220756e   illegalH. or un
 27d0 70724989 47204989 572848b8 696e7461  prI.G I.W(H.inta
 27e0 626c6520 48ba6368 61726163 74654989  ble H.characteI.
 27f0 47304989 57386641 c7474072 2e41c647  G0I.W8fA.G@r.A.G
 2800 42004489 e7e886ea ffffb8ff ffffffe9  B.D.............
 2810 78feffff 488d9c24 50200000 4883ec08  x...H..$P ..H...
 2820 488d8424 58400000 50ff7424 20ff7424  H..$X@..P.t$ .t$
 2830 304c8b4c 24284c8b 44242048 8d0d360c  0L.L$(L.D$ H..6.
 2840 0000ba00 200000be 01000000 4889dfb8  .... .......H...
 2850 00000000 e847ebff ff4883c4 204889df  .....G...H.. H..
 2860 e8fbe9ff ff4889c3 488dac24 50200000  .....H..H..$P ..
 2870 41bd0000 00004885 c00f85e8 fcffff44  A.....H........D
 2880 89642440 c7442444 00000000 488d7c24  .d$@.D$D....H.|$
 2890 40488d44 24504889 44244848 8db42450  @H.D$PH.D$HH..$P
 28a0 200000ba 00200000 e81ff8ff ff4885c0   .... .......H..
 28b0 0f8ed7fc ffff488d 4c242c48 8d942450  ......H.L$,H..$P
 28c0 60000048 8dbc2450 2000004c 8d842450  `..H..$P ..L..$P
 28d0 80000048 8d35230c 0000b800 000000e8  ...H.5#.........
 28e0 2ceaffff 448b4424 2c4181f8 c8000000  ,...D.D$,A......
 28f0 0f850bfd ffff488d 1d110c00 00488db4  ......H......H..
 2900 24502000 00b90300 00004889 dff3a60f  $P .......H.....
 2910 97c01c00 84c00f84 1cfdffff 488db424  ............H..$
 2920 50200000 488d7c24 40ba0020 0000e899  P ..H.|$@.. ....
 2930 f7ffff48 85c07fc5 48b84572 726f723a  ...H....H.Error:
 2940 204348ba 6c69656e 7420756e 49890749   CH.lient unI..I
 2950 89570848 b861626c 6520746f 2048ba72  .W.H.able to H.r
 2960 65616420 68656149 89471049 89571848  ead heaI.G.I.W.H
 2970 b8646572 73206672 6f48ba6d 20736572  .ders froH.m ser
 2980 76657249 89472049 89572841 c6473000  verI.G I.W(A.G0.
 2990 4489e7e8 f8e8ffff b8ffffff ffe9eafc  D...............
 29a0 ffffe8c9 e8fffff3 0f1efa85 ff7501c3  .............u..
 29b0 5389fb48 8d35dcf6 ffffbf0e 000000e8  S..H.5..........
 29c0 fce8ffff 85dbbf00 0000000f 49fbe8ad  ............I...
 29d0 e8ffff5b c3f30f1e fa415455 534883ec  ...[.....ATUSH..
 29e0 204889fd 64488b04 25280000 00488944   H..dH..%(...H.D
 29f0 241831c0 be010000 00bf0d00 0000e8bd  $.1.............
 2a00 e8ffffbe 01000000 bf1d0000 00e8aee8  ................
 2a10 ffffbe01 000000bf 1d000000 e89fe8ff  ................
 2a20 ffba0000 0000be01 000000bf 02000000  ................
 2a30 e87be9ff ff85c00f 889c0000 0089c348  .{.............H
 2a40 8d3dc909 0000e885 e8ffff48 85c00f84  .=.........H....
 2a50 d1000000 4989e448 c7042400 00000048  ....I..H..$....H
 2a60 c7442408 00000000 66c70424 02004863  .D$.....f..$..Hc
 2a70 5014488b 4018488d 7c2404b9 0c000000  P.H.@.H.|$......
 2a80 488b30e8 58e8ffff 66c74424 023b6eba  H.0.X...f.D$.;n.
 2a90 10000000 4c89e689 dfe8c2e8 ffff85c0  ....L...........
 2aa0 0f88e700 000089df e8e3e7ff ff66c745  .............f.E
 2ab0 004f4bc6 450200b8 00000000 488b4c24  .OK.E.......H.L$
 2ac0 1864482b 0c252800 00000f85 f5000000  .dH+.%(.........
 2ad0 4883c420 5b5d415c c348b845 72726f72  H.. []A\.H.Error
 2ae0 3a204348 ba6c6965 6e742075 6e488945  : CH.lient unH.E
 2af0 00488955 0848b861 626c6520 746f2048  .H.U.H.able to H
 2b00 ba637265 61746520 73488945 10488955  .create sH.E.H.U
 2b10 18c74520 6f636b65 66c74524 7400b8ff  ..E ockef.E$t...
 2b20 ffffffeb 9748b845 72726f72 3a204448  .....H.Error: DH
 2b30 ba4e5320 69732075 6e488945 00488955  .NS is unH.E.H.U
 2b40 0848b861 626c6520 746f2048 ba726573  .H.able to H.res
 2b50 6f6c7665 20488945 10488955 1848b873  olve H.E.H.U.H.s
 2b60 65727665 72206148 894520c7 45286464  erver aH.E .E(dd
 2b70 726566c7 452c7373 c6452e00 89dfe80d  ref.E,ss.E......
 2b80 e7ffffb8 ffffffff e92fffff ff4c8d05  ........./...L..
 2b90 7b080000 488d0d35 09000048 c7c2ffff  {...H..5...H....
 2ba0 ffffbe01 00000048 89efb800 000000e8  .......H........
 2bb0 ece7ffff 89dfe8d5 e6ffffb8 ffffffff  ................
 2bc0 e9f7feff ffe8a6e6 fffff30f 1efa534c  ..............SL
 2bd0 89c385c9 75174885 ff740580 3f007533  ....u.H..t..?.u3
 2be0 66c7034f 4bc64302 0089c85b c3488d35  f..OK.C....[.H.5
 2bf0 20090000 bf010000 00b80000 0000e81d   ...............
 2c00 e7ffff66 c7034f4b c6430200 b8000000  ...f..OK.C......
 2c10 00ebd841 50524c8d 0d0e0900 004989f0  ...APRL......I..
 2c20 4889f948 8d151509 0000be6e 3b000048  H..H.......n;..H
 2c30 8d3dd907 0000e85d f5ffff48 83c410eb  .=.....]...H....
 2c40 aa662e0f 1f840000 0000000f 1f440000  .f...........D..
 2c50 f30f1efa 41574c8d 3d832000 00415649  ....AWL.=. ..AVI
 2c60 89d64155 4989f541 544189fc 55488d2d  ..AUI..ATA..UH.-
 2c70 74200000 534c29fd 4883ec08 e87fe3ff  t ..SL).H.......
 2c80 ff48c1fd 03741f31 db0f1f80 00000000  .H...t.1........
 2c90 4c89f24c 89ee4489 e741ff14 df4883c3  L..L..D..A...H..
 2ca0 014839dd 75ea4883 c4085b5d 415c415d  .H9.u.H...[]A\A]
 2cb0 415e415f c366662e 0f1f8400 00000000  A^A_.ff.........
 2cc0 f30f1efa c3                          .....           
Contents of section .fini:
 2cc8 f30f1efa 4883ec08 4883c408 c3        ....H...H....   
Contents of section .rodata:
 3000 01000200 72002573 3a204572 726f723a  ....r.%s: Error:
 3010 20436f75 6c646e27 74206f70 656e2025   Couldn't open %
 3020 730a0055 73616765 3a202573 205b3c69  s..Usage: %s [<i
 3030 6e707574 5f66696c 653e5d0a 00546861  nput_file>]..Tha
 3040 74277320 6e756d62 65722032 2e20204b  t's number 2.  K
 3050 65657020 676f696e 67210048 616c6677  eep going!.Halfw
 3060 61792074 68657265 2100476f 6f642077  ay there!.Good w
 3070 6f726b21 20204f6e 20746f20 74686520  ork!  On to the 
 3080 6e657874 2e2e2e00 57656c63 6f6d6520  next....Welcome 
 3090 746f206d 79206669 656e6469 7368206c  to my fiendish l
 30a0 6974746c 6520626f 6d622e20 596f7520  ittle bomb. You 
 30b0 68617665 20362070 68617365 73207769  have 6 phases wi
 30c0 74680000 00000000 77686963 6820746f  th......which to
 30d0 20626c6f 7720796f 75727365 6c662075   blow yourself u
 30e0 702e2048 61766520 61206e69 63652064  p. Have a nice d
 30f0 61792100 00000000 50686173 65203120  ay!.....Phase 1 
 3100 64656675 7365642e 20486f77 2061626f  defused. How abo
 3110 75742074 6865206e 65787420 6f6e653f  ut the next one?
 3120 00000000 00000000 536f2079 6f752067  ........So you g
 3130 6f742074 68617420 6f6e652e 20205472  ot that one.  Tr
 3140 79207468 6973206f 6e652e00 4372696b  y this one..Crik
 3150 65792120 49206861 7665206c 6f737420  ey! I have lost 
 3160 6d79206d 6f6a6f21 00646576 696c7300  my mojo!.devils.
 3170 7fe5ffff cde5ffff d4e5ffff dbe5ffff  ................
 3180 e2e5ffff e9e5ffff f0e5ffff f7e5ffff  ................
 3190 6d616475 69657273 6e666f74 7662796c  maduiersnfotvbyl
 31a0 576f7721 20596f75 27766520 64656675  Wow! You've defu
 31b0 73656420 74686520 73656372 65742073  sed the secret s
 31c0 74616765 21000000 536f2079 6f752074  tage!...So you t
 31d0 68696e6b 20796f75 2063616e 2073746f  hink you can sto
 31e0 70207468 6520626f 6d622077 69746820  p the bomb with 
 31f0 6374726c 2d632c20 646f2079 6f753f00  ctrl-c, do you?.
 3200 496e6974 69616c69 7a617469 6f6e2065  Initialization e
 3210 72726f72 3a205275 6e6e696e 67206f6e  rror: Running on
 3220 20616e20 696c6c65 67616c20 686f7374   an illegal host
 3230 205b315d 00000000 596f7572 20696e73   [1]....Your ins
 3240 74727563 746f7220 68617320 6265656e  tructor has been
 3250 206e6f74 69666965 642e0000 00000000   notified.......
 3260 43757273 65732c20 796f7527 76652066  Curses, you've f
 3270 6f756e64 20746865 20736563 72657420  ound the secret 
 3280 70686173 65210000 42757420 66696e64  phase!..But find
 3290 696e6720 69742061 6e642073 6f6c7669  ing it and solvi
 32a0 6e672069 74206172 65207175 69746520  ng it are quite 
 32b0 64696666 6572656e 742e2e2e 00000000  different.......
 32c0 436f6e67 72617475 6c617469 6f6e7321  Congratulations!
 32d0 20596f75 27766520 64656675 73656420   You've defused 
 32e0 74686520 626f6d62 21000000 00000000  the bomb!.......
 32f0 596f7572 20696e73 74727563 746f7220  Your instructor 
 3300 68617320 6265656e 206e6f74 69666965  has been notifie
 3310 6420616e 64207769 6c6c2076 65726966  d and will verif
 3320 7920796f 75722073 6f6c7574 696f6e2e  y your solution.
 3330 0057656c 6c2e2e2e 004f4b2e 203a2d29  .Well....OK. :-)
 3340 00496e76 616c6964 20706861 73652573  .Invalid phase%s
 3350 0a00496e 69746961 6c697a61 74696f6e  ..Initialization
 3360 20657272 6f723a0a 25730a00 64656675   error:.%s..defu
 3370 73656400 6578706c 6f646564 0025643a  sed.exploded.%d:
 3380 25733a25 643a2573 000a424f 4f4d2121  %s:%d:%s..BOOM!!
 3390 21005468 6520626f 6d622068 61732062  !.The bomb has b
 33a0 6c6f776e 2075702e 00256420 25642025  lown up..%d %d %
 33b0 64202564 20256420 25640045 72726f72  d %d %d %d.Error
 33c0 3a205072 656d6174 75726520 454f4620  : Premature EOF 
 33d0 6f6e2073 7464696e 00475241 44455f42  on stdin.GRADE_B
 33e0 4f4d4200 4572726f 723a2049 6e707574  OMB.Error: Input
 33f0 206c696e 6520746f 6f206c6f 6e670025   line too long.%
 3400 64202564 20257300 44724576 696c0031  d %d %s.DrEvil.1
 3410 302e3137 362e3132 322e3234 30000000  0.176.122.240...
 3420 50726f67 72616d20 74696d65 64206f75  Program timed ou
 3430 74206166 74657220 25642073 65636f6e  t after %d secon
 3440 64730a00 00000000 4572726f 723a2048  ds......Error: H
 3450 54545020 72657175 65737420 6661696c  TTP request fail
 3460 65642077 69746820 6572726f 72202564  ed with error %d
 3470 3a202573 00000000 47455420 2f25732f  : %s....GET /%s/
 3480 7375626d 6974722e 706c2f3f 75736572  submitr.pl/?user
 3490 69643d25 73267573 65727077 643d2573  id=%s&userpwd=%s
 34a0 266c6162 3d257326 72657375 6c743d25  &lab=%s&result=%
 34b0 73267375 626d6974 3d737562 6d697420  s&submit=submit 
 34c0 48545450 2f312e30 0d0a0d0a 00000000  HTTP/1.0........
 34d0 4572726f 723a2055 6e61626c 6520746f  Error: Unable to
 34e0 20636f6e 6e656374 20746f20 73657276   connect to serv
 34f0 65722025 73002525 25303258 00257320  er %s.%%%02X.%s 
 3500 25642025 5b612d7a 412d7a20 5d000d0a  %d %[a-zA-z ]...
 3510 004f4b00 0a415554 4f524553 554c545f  .OK..AUTORESULT_
 3520 53545249 4e473d25 730a0066 64752d69  STRING=%s..fdu-i
 3530 63732d73 7072696e 672d3230 32330063  cs-spring-2023.c
 3540 73617070 00                          sapp.           
Contents of section .eh_frame_hdr:
 3548 011b033b 24010000 23000000 d8daffff  ...;$...#.......
 3558 58010000 a8dcffff 80010000 b8dcffff  X...............
 3568 98010000 78deffff 40010000 61dfffff  ....x...@...a...
 3578 b0010000 bfe0ffff d0010000 e3e0ffff  ................
 3588 ec010000 51e1ffff 18020000 37e2ffff  ....Q.......7...
 3598 34020000 72e2ffff 64020000 e7e2ffff  4...r...d.......
 35a8 80020000 75e3ffff a4020000 9de4ffff  ....u...........
 35b8 ec020000 dee4ffff 0c030000 3be5ffff  ............;...
 35c8 30030000 9de5ffff 4c030000 cae5ffff  0.......L.......
 35d8 68030000 ebe5ffff 7c030000 4be6ffff  h.......|...K...
 35e8 a8030000 3ce7ffff dc030000 41e7ffff  ....<.......A...
 35f8 f0030000 80e7ffff 18040000 d2e7ffff  ................
 3608 40040000 c4e8ffff 80040000 06e9ffff  @...............
 3618 9c040000 4be9ffff c0040000 86eaffff  ....K...........
 3628 ec040000 4eebffff 08050000 84ebffff  ....N...........
 3638 24050000 50ecffff 64050000 5ff4ffff  $...P...d..._...
 3648 d8050000 8df4ffff f4050000 82f6ffff  ................
 3658 28060000 08f7ffff 50060000 78f7ffff  (.......P...x...
 3668 98060000                             ....            
Contents of section .eh_frame:
 3670 14000000 00000000 017a5200 01781001  .........zR..x..
 3680 1b0c0708 90010000 14000000 1c000000  ................
 3690 30ddffff 2f000000 00440710 00000000  0.../....D......
 36a0 24000000 34000000 78d9ffff d0010000  $...4...x.......
 36b0 000e1046 0e184a0f 0b770880 003f1a3a  ...F..J..w...?.:
 36c0 2a332422 00000000 14000000 5c000000  *3$"........\...
 36d0 20dbffff 10000000 00000000 00000000   ...............
 36e0 14000000 74000000 18dbffff c0010000  ....t...........
 36f0 00000000 00000000 1c000000 8c000000  ................
 3700 a9ddffff 5e010000 00450e10 83020300  ....^....E......
 3710 010a0e08 410b0000 18000000 ac000000  ....A...........
 3720 e7deffff 24000000 00480e10 540a0e08  ....$....H..T...
 3730 410b0000 28000000 c8000000 efdeffff  A...(...........
 3740 6e000000 00450e10 8602410e 18830344  n....E....A....D
 3750 0e40025c 0a0e1841 0e10410e 08410b00  .@.\...A..A..A..
 3760 18000000 f4000000 31dfffff e6000000  ........1.......
 3770 00480e20 029b0a0e 08410b00 2c000000  .H. .....A..,...
 3780 10010000 fbdfffff 3b000000 004f0e10  ........;....O..
 3790 8c02410e 18860341 0e208304 650e1841  ..A....A. ..e..A
 37a0 0e10420e 0841c3c6 cc000000 18000000  ..B..A..........
 37b0 40010000 06e0ffff 75000000 00480e20  @.......u....H. 
 37c0 02600a0e 08410b00 20000000 5c010000  .`...A.. ...\...
 37d0 5fe0ffff 8e000000 00450e10 8302440e  _........E....D.
 37e0 2002700a 0e10410e 08410b00 44000000   .p...A..A..D...
 37f0 80010000 c9e0ffff 28010000 00460e10  ........(....F..
 3800 8e02420e 188d0342 0e208c04 410e2886  ..B....B. ..A.(.
 3810 05410e30 8306440e 9001030a 010a0e30  .A.0..D........0
 3820 410e2841 0e20420e 18420e10 420e0841  A.(A. B..B..B..A
 3830 0b000000 1c000000 c8010000 a9e1ffff  ................
 3840 41000000 004d0e10 510a0e08 410b5c0e  A....M..Q...A.\.
 3850 08000000 20000000 e8010000 cae1ffff  .... ...........
 3860 5d000000 00450e10 83020249 0a0e0841  ]....E.....I...A
 3870 0b000000 00000000 18000000 0c020000  ................
 3880 03e2ffff 62000000 00450e10 410e0844  ....b....E..A..D
 3890 0e100000 18000000 28020000 49e2ffff  ........(...I...
 38a0 2d000000 00450e10 410e0844 0e100000  -....E..A..D....
 38b0 10000000 44020000 5ae2ffff 21000000  ....D...Z...!...
 38c0 00000000 28000000 58020000 67e2ffff  ....(...X...g...
 38d0 60000000 00460e10 8c02410e 18860341  `....F....A....A
 38e0 0e208304 02540e18 410e1042 0e080000  . ...T..A..B....
 38f0 30000000 84020000 9be2ffff f1000000  0...............
 3900 00450e10 8602410e 18830347 0e98204c  .E....A....G.. L
 3910 0e984049 0ef04002 8c0a0e18 410e1041  ..@I..@.....A..A
 3920 0e08410b 10000000 b8020000 58e3ffff  ..A.........X...
 3930 05000000 00000000 24000000 cc020000  ........$.......
 3940 49e3ffff 3f000000 00450e10 8602410e  I...?....E....A.
 3950 18830344 0e20720e 18410e10 410e0800  ...D. r..A..A...
 3960 24000000 f4020000 60e3ffff 52000000  $.......`...R...
 3970 00450e10 8602410e 18830344 0e200245  .E....A....D. .E
 3980 0e18410e 10410e08 3c000000 1c030000  ..A..A..<.......
 3990 8ae3ffff f2000000 00450e10 8302480c  .........E....H.
 39a0 0b908001 510d0744 0ea08001 02480ea8  ....Q..D.....H..
 39b0 8001410e b0800102 4b0ea080 015e0a0e  ..A.....K....^..
 39c0 10410e08 410b0000 18000000 5c030000  .A..A.......\...
 39d0 3ce4ffff 42000000 00450e10 410e0844  <...B....E..A..D
 39e0 0e100000 20000000 78030000 62e4ffff  .... ...x...b...
 39f0 45000000 00480e10 4c0e1845 0e205d0e  E....H..L..E. ].
 3a00 10490a0e 08410b00 28000000 9c030000  .I...A..(.......
 3a10 83e4ffff 3b010000 00450e10 8602410e  ....;....E....A.
 3a20 18830344 0e20026c 0a0e1841 0e10410e  ...D. .l...A..A.
 3a30 08410b00 18000000 c8030000 92e5ffff  .A..............
 3a40 c8000000 00480e80 017b0a0e 08410b00  .....H...{...A..
 3a50 18000000 e4030000 3ee6ffff 36000000  ........>...6...
 3a60 00450e10 410e0844 0e100000 3c000000  .E..A..D....<...
 3a70 00040000 58e6ffff cc000000 00420e10  ....X........B..
 3a80 8e02420e 188d0342 0e208c04 410e2886  ..B....B. ..A.(.
 3a90 05410e30 830602b3 0a0e2841 0e20420e  .A.0......(A. B.
 3aa0 18420e10 420e0841 0b000000 70000000  .B..B..A....p...
 3ab0 40040000 e4e6ffff 0f080000 00460e10  @............F..
 3ac0 8f02420e 188e0342 0e208d04 420e288c  ..B....B. ..B.(.
 3ad0 05410e30 8606410e 38830748 0c0bb8c0  .A.0..A.8..H....
 3ae0 02510d07 440ea0c1 0203e704 0a0e3841  .Q..D.........8A
 3af0 0e30410e 28420e20 420e1842 0e10420e  .0A.(B. B..B..B.
 3b00 08410b03 6b010ea8 c102490e b0c10244  .A..k.....I....D
 3b10 0eb8c102 440ec0c1 026c0ea0 c1020000  ....D....l......
 3b20 18000000 b4040000 7feeffff 2e000000  ................
 3b30 004a0e10 8302630e 08000000 30000000  .J....c.....0...
 3b40 d0040000 91eeffff f5010000 00460e10  .............F..
 3b50 8c02410e 18860341 0e208304 440e4002  ..A....A. ..D.@.
 3b60 f30a0e20 410e1841 0e10420e 08410b00  ... A..A..B..A..
 3b70 24000000 04050000 52f0ffff 77000000  $.......R...w...
 3b80 00450e10 83025d0a 0e08410b 680e1841  .E....]...A.h..A
 3b90 0e20690e 10000000 44000000 2c050000  . i.....D...,...
 3ba0 b0f0ffff 65000000 00460e10 8f02490e  ....e....F....I.
 3bb0 188e0345 0e208d04 450e288c 05440e30  ...E. ..E.(..D.0
 3bc0 8606480e 38830747 0e406e0e 38410e30  ..H.8..G.@n.8A.0
 3bd0 410e2842 0e20420e 18420e10 420e0800  A.(B. B..B..B...
 3be0 10000000 74050000 d8f0ffff 05000000  ....t...........
 3bf0 00000000 00000000                    ........        
Contents of section .init_array:
 4ce0 a0140000 00000000                    ........        
Contents of section .fini_array:
 4ce8 60140000 00000000                    `.......        
Contents of section .dynamic:
 4cf0 01000000 00000000 3e010000 00000000  ........>.......
 4d00 0c000000 00000000 00100000 00000000  ................
 4d10 0d000000 00000000 c82c0000 00000000  .........,......
 4d20 19000000 00000000 e04c0000 00000000  .........L......
 4d30 1b000000 00000000 08000000 00000000  ................
 4d40 1a000000 00000000 e84c0000 00000000  .........L......
 4d50 1c000000 00000000 08000000 00000000  ................
 4d60 f5feff6f 00000000 a0030000 00000000  ...o............
 4d70 05000000 00000000 50070000 00000000  ........P.......
 4d80 06000000 00000000 d8030000 00000000  ................
 4d90 0a000000 00000000 c3010000 00000000  ................
 4da0 0b000000 00000000 18000000 00000000  ................
 4db0 15000000 00000000 00000000 00000000  ................
 4dc0 03000000 00000000 e04e0000 00000000  .........N......
 4dd0 02000000 00000000 a0020000 00000000  ................
 4de0 14000000 00000000 07000000 00000000  ................
 4df0 17000000 00000000 a80c0000 00000000  ................
 4e00 07000000 00000000 c0090000 00000000  ................
 4e10 08000000 00000000 e8020000 00000000  ................
 4e20 09000000 00000000 18000000 00000000  ................
 4e30 1e000000 00000000 08000000 00000000  ................
 4e40 fbffff6f 00000000 01000008 00000000  ...o............
 4e50 feffff6f 00000000 60090000 00000000  ...o....`.......
 4e60 ffffff6f 00000000 01000000 00000000  ...o............
 4e70 f0ffff6f 00000000 14090000 00000000  ...o............
 4e80 f9ffff6f 00000000 17000000 00000000  ...o............
 4e90 00000000 00000000 00000000 00000000  ................
 4ea0 00000000 00000000 00000000 00000000  ................
 4eb0 00000000 00000000 00000000 00000000  ................
 4ec0 00000000 00000000 00000000 00000000  ................
 4ed0 00000000 00000000 00000000 00000000  ................
Contents of section .got:
 4ee0 f04c0000 00000000 00000000 00000000  .L..............
 4ef0 00000000 00000000 30100000 00000000  ........0.......
 4f00 40100000 00000000 50100000 00000000  @.......P.......
 4f10 60100000 00000000 70100000 00000000  `.......p.......
 4f20 80100000 00000000 90100000 00000000  ................
 4f30 a0100000 00000000 b0100000 00000000  ................
 4f40 c0100000 00000000 d0100000 00000000  ................
 4f50 e0100000 00000000 f0100000 00000000  ................
 4f60 00110000 00000000 10110000 00000000  ................
 4f70 20110000 00000000 30110000 00000000   .......0.......
 4f80 40110000 00000000 50110000 00000000  @.......P.......
 4f90 60110000 00000000 70110000 00000000  `.......p.......
 4fa0 80110000 00000000 90110000 00000000  ................
 4fb0 a0110000 00000000 b0110000 00000000  ................
 4fc0 c0110000 00000000 d0110000 00000000  ................
 4fd0 e0110000 00000000 00000000 00000000  ................
 4fe0 00000000 00000000 00000000 00000000  ................
 4ff0 00000000 00000000 00000000 00000000  ................
Contents of section .data:
 5000 00000000 00000000 08500000 00000000  .........P......
 5010 28000000 00000000 00000000 00000000  (...............
 5020 00000000 00000000 00000000 00000000  ................
 5030 01000000 00000000 00000000 00000000  ................
 5040 00000000 00000000 00000000 00000000  ................
 5050 63000000 00000000 00000000 00000000  c...............
 5060 00000000 00000000 00000000 00000000  ................
 5070 23000000 00000000 00000000 00000000  #...............
 5080 00000000 00000000 00000000 00000000  ................
 5090 07000000 00000000 00000000 00000000  ................
 50a0 00000000 00000000 00000000 00000000  ................
 50b0 14000000 00000000 00000000 00000000  ................
 50c0 00000000 00000000 00000000 00000000  ................
 50d0 2f000000 00000000 00000000 00000000  /...............
 50e0 00000000 00000000 00000000 00000000  ................
 50f0 e9030000 00000000 00000000 00000000  ................
 5100 00000000 00000000 00000000 00000000  ................
 5110 52000000 06000000 00000000 00000000  R...............
 5120 64326d73 55506933 426d4838 6669326d  d2msUPi3BmH8fi2m
 5130 75453156 00000000 31393330 30373430  uE1V....19300740
 5140 30303500 40000000 00000000 00000000  005.@...........
 5150 24000000 00000000 70510000 00000000  $.......pQ......
 5160 90510000 00000000 00000000 00000000  .Q..............
 5170 08000000 00000000 f0510000 00000000  .........Q......
 5180 b0510000 00000000 00000000 00000000  .Q..............
 5190 32000000 00000000 d0510000 00000000  2........Q......
 51a0 10520000 00000000 00000000 00000000  .R..............
 51b0 16000000 00000000 b0500000 00000000  .........P......
 51c0 70500000 00000000 00000000 00000000  pP..............
 51d0 2d000000 00000000 10500000 00000000  -........P......
 51e0 d0500000 00000000 00000000 00000000  .P..............
 51f0 06000000 00000000 30500000 00000000  ........0P......
 5200 90500000 00000000 00000000 00000000  .P..............
 5210 6b000000 00000000 50500000 00000000  k.......PP......
 5220 f0500000 00000000 00000000 00000000  .P..............
 5230 1a020000 01000000 40520000 00000000  ........@R......
 5240 2d020000 02000000 50520000 00000000  -.......PR......
 5250 1a010000 03000000 60520000 00000000  ........`R......
 5260 80020000 04000000 70520000 00000000  ........pR......
 5270 c0030000 05000000 10510000 00000000  .........Q......
 5280 0f340000 00000000 00000000 00000000  .4..............
 5290 00000000 00000000 00000000 00000000  ................
 52a0 00000000 00000000 00000000 00000000  ................
 52b0 00000000 00000000 00000000 00000000  ................
 52c0 00000000 00000000 00000000 00000000  ................
 52d0 00000000 00000000 00000000 00000000  ................
 52e0 00000000 00000000 00000000 00000000  ................
 52f0 00000000 00000000 00000000 00000000  ................
 5300 00000000 00000000 00000000 00000000  ................
 5310 00000000 00000000 00000000 00000000  ................
 5320 00000000 00000000 00000000 00000000  ................
 5330 00000000 00000000 00000000 00000000  ................
 5340 00000000 00000000 00000000 00000000  ................
 5350 00000000 00000000 00000000 00000000  ................
 5360 00000000 00000000 00000000 00000000  ................
 5370 00000000 00000000 00000000 00000000  ................
 5380 00000000 00000000 00000000 00000000  ................
 5390 00000000 00000000 00000000 00000000  ................
 53a0 00000000 00000000 00000000 00000000  ................
 53b0 00000000 00000000 00000000 00000000  ................
 53c0 00000000 00000000 00000000 00000000  ................
 53d0 00000000 00000000 00000000 00000000  ................
 53e0 00000000 00000000 00000000 00000000  ................
 53f0 00000000 00000000 00000000 00000000  ................
 5400 00000000 00000000 00000000 00000000  ................
 5410 00000000 00000000 00000000 00000000  ................
 5420 00000000 00000000 00000000 00000000  ................
 5430 00000000 00000000 00000000 00000000  ................
 5440 00000000 00000000 00000000 00000000  ................
 5450 00000000 00000000 00000000 00000000  ................
 5460 00000000 00000000 00000000 00000000  ................
 5470 00000000 00000000 00000000 00000000  ................
 5480 00000000 00000000 00000000 00000000  ................
 5490 00000000 00000000 00000000 00000000  ................
 54a0 00000000 00000000 00000000 00000000  ................
 54b0 00000000 00000000 00000000 00000000  ................
 54c0 00000000 00000000 00000000 00000000  ................
 54d0 00000000 00000000 00000000 00000000  ................
 54e0 00000000 00000000 00000000 00000000  ................
 54f0 00000000 00000000 00000000 00000000  ................
 5500 00000000 00000000 00000000 00000000  ................
 5510 00000000 00000000 00000000 00000000  ................
 5520 00000000 00000000 00000000 00000000  ................
 5530 00000000 00000000 00000000 00000000  ................
 5540 00000000 00000000 00000000 00000000  ................
 5550 00000000 00000000 00000000 00000000  ................
 5560 00000000 00000000 00000000 00000000  ................
 5570 00000000 00000000 00000000 00000000  ................
 5580 00000000 00000000 00000000 00000000  ................
 5590 00000000 00000000 00000000 00000000  ................
 55a0 00000000 00000000 00000000 00000000  ................
 55b0 00000000 00000000 00000000 00000000  ................
 55c0 00000000 00000000 00000000 00000000  ................
 55d0 00000000 00000000 00000000 00000000  ................
 55e0 00000000 00000000 00000000 00000000  ................
 55f0 00000000 00000000 00000000 00000000  ................
 5600 00000000 00000000 00000000 00000000  ................
 5610 00000000 00000000 00000000 00000000  ................
 5620 00000000 00000000 00000000 00000000  ................
 5630 00000000 00000000 00000000 00000000  ................
 5640 00000000 00000000 00000000 00000000  ................
 5650 00000000 00000000 00000000 00000000  ................
 5660 00000000 00000000 00000000 00000000  ................
 5670 00000000 00000000 00000000 00000000  ................
Contents of section .comment:
 0000 4743433a 20285562 756e7475 2031302e  GCC: (Ubuntu 10.
 0010 332e302d 31756275 6e747531 7e32302e  3.0-1ubuntu1~20.
 0020 31302920 31302e33 2e3000             10) 10.3.0.     
Contents of section .debug_aranges:
 0000 2c000000 02000000 00000800 00000000  ,...............
 0010 a9140000 00000000 5e010000 00000000  ........^.......
 0020 00000000 00000000 00000000 00000000  ................
Contents of section .debug_info:
 0000 0d090000 04000000 00000801 41000000  ............A...
 0010 0c740200 006c0100 00a91400 00000000  .t...l..........
 0020 005e0100 00000000 00000000 00022300  .^............#.
 0030 000003d1 17390000 00030807 db000000  .....9..........
 0040 030407e0 00000004 08030108 3a020000  ............:...
 0050 030207c5 01000003 01063c02 00000302  ..........<.....
 0060 05480200 00050405 696e7400 030805fc  .H......int.....
 0070 00000002 07000000 0498196c 00000002  ...........l....
 0080 81020000 04991b6c 00000006 08910000  .......l........
 0090 00030106 43020000 07910000 00082202  ....C.........".
 00a0 0000d805 31082402 00000928 01000005  ....1.$....(....
 00b0 33076500 00000009 0f000000 0536098b  3.e..........6..
 00c0 00000008 091b0100 00053709 8b000000  ..........7.....
 00d0 10098b02 00000538 098b0000 00180919  .......8........
 00e0 03000005 39098b00 00002009 b7010000  ....9..... .....
 00f0 053a098b 00000028 09090200 00053b09  .:.....(......;.
 0100 8b000000 30093400 0000053c 098b0000  ....0.4....<....
 0110 0038092f 01000005 3d098b00 00004009  .8./....=.....@.
 0120 d8010000 0540098b 00000048 09f10200  .....@.....H....
 0130 00054109 8b000000 50099902 00000542  ..A.....P......B
 0140 098b0000 00580931 02000005 44163d02  .....X.1....D.=.
 0150 00006009 1c000000 05461443 02000068  ..`......F.C...h
 0160 09130100 00054807 65000000 7009ec01  ......H.e...p...
 0170 00000549 07650000 00740960 01000005  ...I.e...t.`....
 0180 4a0b7300 00007809 3b010000 054d1250  J.s...x.;....M.P
 0190 00000080 09600200 00054e0f 57000000  .....`....N.W...
 01a0 82092a00 0000054f 08490200 008309e6  ..*....O.I......
 01b0 01000005 510f5902 00008809 64010000  ....Q.Y.....d...
 01c0 05590d7f 00000090 094a0100 00055b17  .Y.......J....[.
 01d0 64020000 98095502 0000055c 196f0200  d.....U....\.o..
 01e0 00a00906 03000005 5d144302 0000a809  ........].C.....
 01f0 aa010000 055e0947 000000b0 09ac0200  .....^.G........
 0200 00055f0a 2d000000 b809f401 00000560  .._.-..........`
 0210 07650000 00c009b3 02000005 62087502  .e..........b.u.
 0220 0000c400 02260200 00060719 9d000000  .....&..........
 0230 0a170200 00052b0e 0b990100 00060838  ......+........8
 0240 02000006 089d0000 000c9100 00005902  ..............Y.
 0250 00000d39 00000000 00060830 0200000b  ...9.......0....
 0260 47010000 06085f02 00000b52 02000006  G....._....R....
 0270 086a0200 000c9100 00008502 00000d39  .j.............9
 0280 00000013 000ea401 00000789 0e910200  ................
 0290 00060824 02000003 0805f700 00000308  ...$............
 02a0 07d60000 000f8201 00000122 07910200  ..........."....
 02b0 000903b0 56000000 00000010 14030000  ....V...........
 02c0 01240565 000000a9 14000000 0000005e  .$.e...........^
 02d0 01000000 00000001 9c220700 00110103  ........."......
 02e0 00000124 0e650000 000c0000 00000000  ...$.e..........
 02f0 0011bc02 00000124 1a220700 00a10000  .......$."......
 0300 00970000 00127b02 00000126 0b8b0000  ......{....&....
 0310 001f0100 00130100 00132807 0000e814  ..........(.....
 0320 00000000 000001e8 14000000 0000000c  ................
 0330 00000000 00000001 45056703 00001439  ........E.g....9
 0340 070000a3 010000a1 01000015 f4140000  ................
 0350 00000000 92070000 16015509 03883000  ..........U...0.
 0360 00000000 00000013 28070000 f4140000  ........(.......
 0370 00000000 02f41400 00000000 000c0000  ................
 0380 00000000 00014605 b5030000 14390700  ......F......9..
 0390 00cd0100 00cb0100 00150015 00000000  ................
 03a0 00009207 00001601 550903c8 30000000  ........U...0...
 03b0 00000000 00132807 00001215 00000000  ......(.........
 03c0 00000112 15000000 0000000c 00000000  ................
 03d0 00000001 4d050304 00001439 070000f7  ....M......9....
 03e0 010000f5 01000015 1e150000 00000000  ................
 03f0 92070000 16015509 03f83000 00000000  ......U...0.....
 0400 00000013 28070000 30150000 00000000  ....(...0.......
 0410 01301500 00000000 000c0000 00000000  .0..............
 0420 00015405 51040000 14390700 00210200  ..T.Q....9...!..
 0430 001f0200 00153c15 00000000 00009207  ......<.........
 0440 00001601 5509033d 30000000 00000000  ....U..=0.......
 0450 00132807 00004e15 00000000 0000014e  ..(...N........N
 0460 15000000 0000000c 00000000 00000001  ................
 0470 5b059f04 00001439 0700004b 02000049  [......9...K...I
 0480 02000015 5a150000 00000000 92070000  ....Z...........
 0490 16015509 035b3000 00000000 00000013  ..U..[0.........
 04a0 28070000 6c150000 00000000 016c1500  (...l........l..
 04b0 00000000 000c0000 00000000 00016105  ..............a.
 04c0 ed040000 14390700 00750200 00730200  .....9...u...s..
 04d0 00157815 00000000 00009207 00001601  ..x.............
 04e0 55090328 31000000 00000000 00132807  U..(1.........(.
 04f0 00008a15 00000000 0000018a 15000000  ................
 0500 0000000c 00000000 00000001 67053b05  ............g.;.
 0510 00001439 0700009f 0200009d 02000015  ...9............
 0520 96150000 00000000 92070000 16015509  ..............U.
 0530 036a3000 00000000 00000013 28070000  .j0.........(...
 0540 c2150000 00000000 01c21500 00000000  ................
 0550 00180000 00000000 00013706 8e050000  ..........7.....
 0560 14390700 00c90200 00c70200 0015da15  .9..............
 0570 00000000 00007f08 00001601 55013116  ............U.1.
 0580 01540903 06300000 00000000 00001328  .T...0.........(
 0590 070000e4 15000000 00000001 e4150000  ................
 05a0 00000000 19000000 00000000 013e02e1  .............>..
 05b0 05000014 39070000 f7020000 f5020000  ....9...........
 05c0 15fd1500 00000000 007f0800 00160155  ...............U
 05d0 01311601 54090323 30000000 00000000  .1..T..#0.......
 05e0 0017d314 00000000 00008b08 00000006  ................
 05f0 00001601 54090304 30000000 00000000  ....T...0.......
 0600 18e81400 00000000 00970800 00180515  ................
 0610 00000000 0000a308 0000180d 15000000  ................
 0620 000000af 08000018 12150000 00000000  ................
 0630 bb080000 18231500 00000000 00a30800  .....#..........
 0640 00182b15 00000000 0000c708 00001830  ..+............0
 0650 15000000 000000bb 08000018 41150000  ............A...
 0660 00000000 a3080000 18491500 00000000  .........I......
 0670 00d30800 00184e15 00000000 0000bb08  ......N.........
 0680 0000185f 15000000 000000a3 08000018  ..._............
 0690 67150000 00000000 df080000 186c1500  g............l..
 06a0 00000000 00bb0800 00187d15 00000000  ..........}.....
 06b0 0000a308 00001885 15000000 000000eb  ................
 06c0 08000018 8a150000 00000000 bb080000  ................
 06d0 189b1500 00000000 00a30800 0018a315  ................
 06e0 00000000 0000f708 000018a8 15000000  ................
 06f0 000000bb 08000017 e4150000 00000000  ................
 0700 03090000 0e070000 16015501 38001507  ..........U.8...
 0710 16000000 00000003 09000016 01550138  .............U.8
 0720 00000608 8b000000 19000000 00026c01  ..............l.
 0730 65000000 03470700 001aa602 0000026c  e....G.........l
 0740 204d0700 001b0006 08980000 001c4707   M............G.
 0750 00001d3e 9e3c5765 6c636f6d 6520746f  ...>.<Welcome to
 0760 206d7920 6669656e 64697368 206c6974   my fiendish lit
 0770 746c6520 626f6d62 2e20596f 75206861  tle bomb. You ha
 0780 76652036 20706861 73657320 77697468  ve 6 phases with
 0790 0a001e04 020000fa 0100000b 001d2f9e  ............../.
 07a0 2d776869 63682074 6f20626c 6f772079  -which to blow y
 07b0 6f757273 656c6620 75702e20 48617665  ourself up. Have
 07c0 2061206e 69636520 64617921 0a001d2c   a nice day!...,
 07d0 9e2a5068 61736520 31206465 66757365  .*Phase 1 defuse
 07e0 642e2048 6f772061 626f7574 20746865  d. How about the
 07f0 206e6578 74206f6e 653f0a00 1d219e1f   next one?...!..
 0800 54686174 2773206e 756d6265 7220322e  That's number 2.
 0810 20204b65 65702067 6f696e67 210a001d    Keep going!...
 0820 129e1048 616c6677 61792074 68657265  ...Halfway there
 0830 210a001d 279e2553 6f20796f 7520676f  !...'.%So you go
 0840 74207468 6174206f 6e652e20 20547279  t that one.  Try
 0850 20746869 73206f6e 652e0a00 1d219e1f   this one....!..
 0860 476f6f64 20776f72 6b212020 4f6e2074  Good work!  On t
 0870 6f207468 65206e65 78742e2e 2e0a001f  o the next......
 0880 53010000 53010000 025d0c1f 2b020000  S...S....]..+...
 0890 2b020000 07f60e1f 89010000 89010000  +...............
 08a0 0809061f ed000000 ed000000 0808071f  ................
 08b0 c1020000 c1020000 09040d1f 05010000  ................
 08c0 05010000 080c061f c9020000 c9020000  ................
 08d0 09050d1f d1020000 d1020000 09060d1f  ................
 08e0 d9020000 d9020000 09070d1f e1020000  ................
 08f0 e1020000 09080d1f e9020000 e9020000  ................
 0900 09090d20 6f020000 6f020000 0a69020d  ... o...o....i..
 0910 00                                   .               
Contents of section .debug_abbrev:
 0000 01110125 0e130b03 0e1b0e11 01120710  ...%............
 0010 17000002 1600030e 3a0b3b0b 390b4913  ........:.;.9.I.
 0020 00000324 000b0b3e 0b030e00 00040f00  ...$...>........
 0030 0b0b0000 0524000b 0b3e0b03 08000006  .....$...>......
 0040 0f000b0b 49130000 07260049 13000008  ....I....&.I....
 0050 1301030e 0b0b3a0b 3b0b390b 01130000  ......:.;.9.....
 0060 090d0003 0e3a0b3b 0b390b49 13380b00  .....:.;.9.I.8..
 0070 000a1600 030e3a0b 3b0b390b 00000b13  ......:.;.9.....
 0080 00030e3c 1900000c 01014913 01130000  ...<......I.....
 0090 0d210049 132f0b00 000e3400 030e3a0b  .!.I./....4...:.
 00a0 3b0b390b 49133f19 3c190000 0f340003  ;.9.I.?.<....4..
 00b0 0e3a0b3b 0b390b49 133f1902 18000010  .:.;.9.I.?......
 00c0 2e013f19 030e3a0b 3b0b390b 27194913  ..?...:.;.9.'.I.
 00d0 11011207 40189742 19011300 00110500  ....@..B........
 00e0 030e3a0b 3b0b390b 49130217 b7421700  ..:.;.9.I....B..
 00f0 00123400 030e3a0b 3b0b390b 49130217  ..4...:.;.9.I...
 0100 b7421700 00131d01 31135201 b8420b11  .B......1.R..B..
 0110 01120758 0b590b57 0b011300 00140500  ...X.Y.W........
 0120 31130217 b7421700 00158982 01011101  1....B..........
 0130 31130000 168a8201 00021891 42180000  1...........B...
 0140 17898201 01110131 13011300 00188982  .......1........
 0150 01001101 31130000 192e013f 19030e3a  ....1......?...:
 0160 0b3b0b39 0b271949 13200b34 19011300  .;.9.'.I. .4....
 0170 001a0500 030e3a0b 3b0b390b 49130000  ......:.;.9.I...
 0180 1b180000 001c3700 49130000 1d360002  ......7.I....6..
 0190 1800001e 2e003f19 3c196e0e 030e3a0b  ......?.<.n...:.
 01a0 3b0b0000 1f2e003f 193c196e 0e030e3a  ;......?.<.n...:
 01b0 0b3b0b39 0b000020 2e003f19 3c196e0e  .;.9... ..?.<.n.
 01c0 030e3a0b 3b05390b 000000             ..:.;.9....     
Contents of section .debug_line:
 0000 80020000 03001b01 00000101 fb0e0d00  ................
 0010 01010101 00000001 0000012f 7573722f  .........../usr/
 0020 696e636c 7564652f 7838365f 36342d6c  include/x86_64-l
 0030 696e7578 2d676e75 2f626974 73002f75  inux-gnu/bits./u
 0040 73722f6c 69622f67 63632f78 38365f36  sr/lib/gcc/x86_6
 0050 342d6c69 6e75782d 676e752f 31302f69  4-linux-gnu/10/i
 0060 6e636c75 6465002f 7573722f 696e636c  nclude./usr/incl
 0070 7564652f 7838365f 36342d6c 696e7578  ude/x86_64-linux
 0080 2d676e75 2f626974 732f7479 70657300  -gnu/bits/types.
 0090 2f757372 2f696e63 6c756465 0000626f  /usr/include..bo
 00a0 6d622e63 00000000 73746469 6f322e68  mb.c....stdio2.h
 00b0 00010000 73746464 65662e68 00020000  ....stddef.h....
 00c0 74797065 732e6800 01000073 74727563  types.h....struc
 00d0 745f4649 4c452e68 00030000 46494c45  t_FILE.h....FILE
 00e0 2e680003 00007374 64696f2e 68000400  .h....stdio.h...
 00f0 00737570 706f7274 2e680000 00007068  .support.h....ph
 0100 61736573 2e680000 00007374 646c6962  ases.h....stdlib
 0110 2e680004 00003c62 75696c74 2d696e3e  .h....<built-in>
 0120 00000000 00050100 0902a914 00000000  ................
 0130 00000324 01060105 05065919 05080601  ...$......Y.....
 0140 050a06c2 050d0601 05020691 05110601  ................
 0150 4a74050f 58050574 06030d90 5a040205  Jt..X..t....Z...
 0160 01032701 05031405 0a0601ba 04010505  ..'.............
 0170 06035801 04020501 03260105 0314050a  ..X......&......
 0180 0601ba04 01050506 035b0105 0d060105  .........[......
 0190 05068359 5a040205 01031f01 05031405  ...YZ...........
 01a0 0a0601ba 04010505 06036301 050d0601  ..........c.....
 01b0 05050683 59590402 05010318 01050314  ....YY..........
 01c0 050a0601 ba040105 0506036a 01050d06  ...........j....
 01d0 01050506 83595904 02050103 11010503  .....YY.........
 01e0 14050a06 01ba0401 05050603 7001050d  ............p...
 01f0 06010505 06835959 04020501 030b0105  ......YY........
 0200 0314050a 0601ba04 01050506 03760105  .............v..
 0210 0d060105 05068359 59040205 01170503  .......YY.......
 0220 14050a06 01ba0401 0505060f 050d0601  ................
 0230 05050683 595d0501 06130502 0603bb7f  ....Y]..........
 0240 74050906 01050606 0309082e 04020501  t...............
 0250 03350105 0314050a 06010874 04010506  .5.........t....
 0260 06034a01 0502a404 02050103 2e010503  ..J.............
 0270 14050a06 01e49e04 01050206 03510102  .............Q..
 0280 0a000101                             ....            
Contents of section .debug_str:
 0000 7072696e 7466005f 5f6f6666 5f74005f  printf.__off_t._
 0010 494f5f72 6561645f 70747200 5f636861  IO_read_ptr._cha
 0020 696e0073 697a655f 74005f73 686f7274  in.size_t._short
 0030 62756600 5f494f5f 6275665f 62617365  buf._IO_buf_base
 0040 00474e55 20433137 2031302e 332e3020  .GNU C17 10.3.0 
 0050 2d6d7475 6e653d67 656e6572 6963202d  -mtune=generic -
 0060 6d617263 683d7838 362d3634 202d6767  march=x86-64 -gg
 0070 6462202d 4f31202d 66617379 6e636872  db -O1 -fasynchr
 0080 6f6e6f75 732d756e 77696e64 2d746162  onous-unwind-tab
 0090 6c657320 2d667374 61636b2d 70726f74  les -fstack-prot
 00a0 6563746f 722d7374 726f6e67 202d6673  ector-strong -fs
 00b0 7461636b 2d636c61 73682d70 726f7465  tack-clash-prote
 00c0 6374696f 6e202d66 63662d70 726f7465  ction -fcf-prote
 00d0 6374696f 6e006c6f 6e67206c 6f6e6720  ction.long long 
 00e0 756e7369 676e6564 20696e74 00726561  unsigned int.rea
 00f0 645f6c69 6e65006c 6f6e6720 6c6f6e67  d_line.long long
 0100 20696e74 00706861 73655f64 65667573   int.phase_defus
 0110 6564005f 66696c65 6e6f005f 494f5f72  ed._fileno._IO_r
 0120 6561645f 656e6400 5f666c61 6773005f  ead_end._flags._
 0130 494f5f62 75665f65 6e64005f 6375725f  IO_buf_end._cur_
 0140 636f6c75 6d6e005f 494f5f63 6f646563  column._IO_codec
 0150 7674005f 5f707269 6e74665f 63686b00  vt.__printf_chk.
 0160 5f6f6c64 5f6f6666 73657400 2f686f6d  _old_offset./hom
 0170 652f6963 732f626f 6d626c61 622f7372  e/ics/bomblab/sr
 0180 6300696e 66696c65 00696e69 7469616c  c.infile.initial
 0190 697a655f 626f6d62 005f494f 5f6d6172  ize_bomb._IO_mar
 01a0 6b657200 73746469 6e005f66 72656572  ker.stdin._freer
 01b0 65735f62 7566005f 494f5f77 72697465  es_buf._IO_write
 01c0 5f707472 0073686f 72742075 6e736967  _ptr.short unsig
 01d0 6e656420 696e7400 5f494f5f 73617665  ned int._IO_save
 01e0 5f626173 65005f6c 6f636b00 5f666c61  _base._lock._fla
 01f0 67733200 5f6d6f64 65005f5f 6275696c  gs2._mode.__buil
 0200 74696e5f 70757473 005f494f 5f777269  tin_puts._IO_wri
 0210 74655f65 6e64005f 494f5f6c 6f636b5f  te_end._IO_lock_
 0220 74005f49 4f5f4649 4c450066 6f70656e  t._IO_FILE.fopen
 0230 005f6d61 726b6572 7300756e 7369676e  ._markers.unsign
 0240 65642063 68617200 73686f72 7420696e  ed char.short in
 0250 74005f49 4f5f7769 64655f64 61746100  t._IO_wide_data.
 0260 5f767461 626c655f 6f666673 65740065  _vtable_offset.e
 0270 78697400 626f6d62 2e630069 6e707574  xit.bomb.c.input
 0280 005f5f6f 66663634 5f74005f 494f5f72  .__off64_t._IO_r
 0290 6561645f 62617365 005f494f 5f736176  ead_base._IO_sav
 02a0 655f656e 64005f5f 666d7400 5f5f7061  e_end.__fmt.__pa
 02b0 6435005f 756e7573 65643200 61726776  d5._unused2.argv
 02c0 00706861 73655f31 00706861 73655f32  .phase_1.phase_2
 02d0 00706861 73655f33 00706861 73655f34  .phase_3.phase_4
 02e0 00706861 73655f35 00706861 73655f36  .phase_5.phase_6
 02f0 005f494f 5f626163 6b75705f 62617365  ._IO_backup_base
 0300 00617267 63005f66 72656572 65735f6c  .argc._freeres_l
 0310 69737400 6d61696e 005f494f 5f777269  ist.main._IO_wri
 0320 74655f62 61736500                    te_base.        
Contents of section .debug_loc:
 0000 00000000 00000000 00000000 00000000  ................
 0010 00000000 1e000000 00000000 0100551e  ..............U.
 0020 00000000 00000006 01000000 00000004  ................
 0030 00f30155 9f060100 00000000 00190100  ...U............
 0040 00000000 00010055 19010000 00000000  .......U........
 0050 3b010000 00000000 0400f301 559f3b01  ;...........U.;.
 0060 00000000 00004a01 00000000 00000100  ......J.........
 0070 554a0100 00000000 005e0100 00000000  UJ.......^......
 0080 000400f3 01559f00 00000000 00000000  .....U..........
 0090 00000000 00000000 00000000 00000000  ................
 00a0 00000000 00000000 00250000 00000000  .........%......
 00b0 00010054 25000000 00000000 3a000000  ...T%.......:...
 00c0 00000000 0100533a 00000000 00000006  ......S:........
 00d0 01000000 00000004 00f30154 9f060100  ...........T....
 00e0 00000000 00190100 00000000 00010054  ...............T
 00f0 19010000 00000000 5e010000 00000000  ........^.......
 0100 01005300 00000000 00000000 00000000  ..S.............
 0110 00000000 00000000 00000000 0000005f  ..............._
 0120 00000000 00000063 00000000 00000001  .......c........
 0130 00507d00 00000000 00008100 00000000  .P}.............
 0140 00000100 509b0000 00000000 009f0000  ....P...........
 0150 00000000 00010050 b9000000 00000000  .......P........
 0160 bd000000 00000000 010050d7 00000000  ..........P.....
 0170 000000db 00000000 00000001 0050f500  .............P..
 0180 00000000 0000f900 00000000 00000100  ................
 0190 50000000 00000000 00000000 00000000  P...............
 01a0 0001003f 00000000 0000004b 00000000  ...?.......K....
 01b0 00000006 00f25207 00000000 00000000  ......R.........
 01c0 00000000 00000000 00000002 004b0000  .............K..
 01d0 00000000 00570000 00000000 000600f2  .....W..........
 01e0 9d070000 00000000 00000000 00000000  ................
 01f0 00000000 00010069 00000000 00000075  .......i.......u
 0200 00000000 00000006 00f2ce07 00000000  ................
 0210 00000000 00000000 00000000 00000001  ................
 0220 00870000 00000000 00930000 00000000  ................
 0230 000600f2 fc070000 00000000 00000000  ................
 0240 00000000 00000000 000100a5 00000000  ................
 0250 000000b1 00000000 00000006 00f21f08  ................
 0260 00000000 00000000 00000000 00000000  ................
 0270 00000001 00c30000 00000000 00cf0000  ................
 0280 00000000 000600f2 33080000 00000000  ........3.......
 0290 00000000 00000000 00000000 000100e1  ................
 02a0 00000000 000000ed 00000000 00000006  ................
 02b0 00f25c08 00000000 00000000 00000000  ..\.............
 02c0 00000000 00000001 00190100 00000000  ................
 02d0 00310100 00000000 000a0003 06300000  .1...........0..
 02e0 00000000 9f000000 00000000 00000000  ................
 02f0 00000000 0001003b 01000000 00000054  .......;.......T
 0300 01000000 0000000a 00032330 00000000  ..........#0....
 0310 00009f00 00000000 00000000 00000000  ................
 0320 000000                               ...             

Disassembly of section .init:

0000000000001000 <_init>:
    1000:	f3 0f 1e fa          	endbr64 
    1004:	48 83 ec 08          	sub    $0x8,%rsp
    1008:	48 8b 05 d9 3f 00 00 	mov    0x3fd9(%rip),%rax        # 4fe8 <__gmon_start__>
    100f:	48 85 c0             	test   %rax,%rax
    1012:	74 02                	je     1016 <_init+0x16>
    1014:	ff d0                	callq  *%rax
    1016:	48 83 c4 08          	add    $0x8,%rsp
    101a:	c3                   	retq   

Disassembly of section .plt:

0000000000001020 <.plt>:
    1020:	ff 35 c2 3e 00 00    	pushq  0x3ec2(%rip)        # 4ee8 <_GLOBAL_OFFSET_TABLE_+0x8>
    1026:	f2 ff 25 c3 3e 00 00 	bnd jmpq *0x3ec3(%rip)        # 4ef0 <_GLOBAL_OFFSET_TABLE_+0x10>
    102d:	0f 1f 00             	nopl   (%rax)
    1030:	f3 0f 1e fa          	endbr64 
    1034:	68 00 00 00 00       	pushq  $0x0
    1039:	f2 e9 e1 ff ff ff    	bnd jmpq 1020 <.plt>
    103f:	90                   	nop
    1040:	f3 0f 1e fa          	endbr64 
    1044:	68 01 00 00 00       	pushq  $0x1
    1049:	f2 e9 d1 ff ff ff    	bnd jmpq 1020 <.plt>
    104f:	90                   	nop
    1050:	f3 0f 1e fa          	endbr64 
    1054:	68 02 00 00 00       	pushq  $0x2
    1059:	f2 e9 c1 ff ff ff    	bnd jmpq 1020 <.plt>
    105f:	90                   	nop
    1060:	f3 0f 1e fa          	endbr64 
    1064:	68 03 00 00 00       	pushq  $0x3
    1069:	f2 e9 b1 ff ff ff    	bnd jmpq 1020 <.plt>
    106f:	90                   	nop
    1070:	f3 0f 1e fa          	endbr64 
    1074:	68 04 00 00 00       	pushq  $0x4
    1079:	f2 e9 a1 ff ff ff    	bnd jmpq 1020 <.plt>
    107f:	90                   	nop
    1080:	f3 0f 1e fa          	endbr64 
    1084:	68 05 00 00 00       	pushq  $0x5
    1089:	f2 e9 91 ff ff ff    	bnd jmpq 1020 <.plt>
    108f:	90                   	nop
    1090:	f3 0f 1e fa          	endbr64 
    1094:	68 06 00 00 00       	pushq  $0x6
    1099:	f2 e9 81 ff ff ff    	bnd jmpq 1020 <.plt>
    109f:	90                   	nop
    10a0:	f3 0f 1e fa          	endbr64 
    10a4:	68 07 00 00 00       	pushq  $0x7
    10a9:	f2 e9 71 ff ff ff    	bnd jmpq 1020 <.plt>
    10af:	90                   	nop
    10b0:	f3 0f 1e fa          	endbr64 
    10b4:	68 08 00 00 00       	pushq  $0x8
    10b9:	f2 e9 61 ff ff ff    	bnd jmpq 1020 <.plt>
    10bf:	90                   	nop
    10c0:	f3 0f 1e fa          	endbr64 
    10c4:	68 09 00 00 00       	pushq  $0x9
    10c9:	f2 e9 51 ff ff ff    	bnd jmpq 1020 <.plt>
    10cf:	90                   	nop
    10d0:	f3 0f 1e fa          	endbr64 
    10d4:	68 0a 00 00 00       	pushq  $0xa
    10d9:	f2 e9 41 ff ff ff    	bnd jmpq 1020 <.plt>
    10df:	90                   	nop
    10e0:	f3 0f 1e fa          	endbr64 
    10e4:	68 0b 00 00 00       	pushq  $0xb
    10e9:	f2 e9 31 ff ff ff    	bnd jmpq 1020 <.plt>
    10ef:	90                   	nop
    10f0:	f3 0f 1e fa          	endbr64 
    10f4:	68 0c 00 00 00       	pushq  $0xc
    10f9:	f2 e9 21 ff ff ff    	bnd jmpq 1020 <.plt>
    10ff:	90                   	nop
    1100:	f3 0f 1e fa          	endbr64 
    1104:	68 0d 00 00 00       	pushq  $0xd
    1109:	f2 e9 11 ff ff ff    	bnd jmpq 1020 <.plt>
    110f:	90                   	nop
    1110:	f3 0f 1e fa          	endbr64 
    1114:	68 0e 00 00 00       	pushq  $0xe
    1119:	f2 e9 01 ff ff ff    	bnd jmpq 1020 <.plt>
    111f:	90                   	nop
    1120:	f3 0f 1e fa          	endbr64 
    1124:	68 0f 00 00 00       	pushq  $0xf
    1129:	f2 e9 f1 fe ff ff    	bnd jmpq 1020 <.plt>
    112f:	90                   	nop
    1130:	f3 0f 1e fa          	endbr64 
    1134:	68 10 00 00 00       	pushq  $0x10
    1139:	f2 e9 e1 fe ff ff    	bnd jmpq 1020 <.plt>
    113f:	90                   	nop
    1140:	f3 0f 1e fa          	endbr64 
    1144:	68 11 00 00 00       	pushq  $0x11
    1149:	f2 e9 d1 fe ff ff    	bnd jmpq 1020 <.plt>
    114f:	90                   	nop
    1150:	f3 0f 1e fa          	endbr64 
    1154:	68 12 00 00 00       	pushq  $0x12
    1159:	f2 e9 c1 fe ff ff    	bnd jmpq 1020 <.plt>
    115f:	90                   	nop
    1160:	f3 0f 1e fa          	endbr64 
    1164:	68 13 00 00 00       	pushq  $0x13
    1169:	f2 e9 b1 fe ff ff    	bnd jmpq 1020 <.plt>
    116f:	90                   	nop
    1170:	f3 0f 1e fa          	endbr64 
    1174:	68 14 00 00 00       	pushq  $0x14
    1179:	f2 e9 a1 fe ff ff    	bnd jmpq 1020 <.plt>
    117f:	90                   	nop
    1180:	f3 0f 1e fa          	endbr64 
    1184:	68 15 00 00 00       	pushq  $0x15
    1189:	f2 e9 91 fe ff ff    	bnd jmpq 1020 <.plt>
    118f:	90                   	nop
    1190:	f3 0f 1e fa          	endbr64 
    1194:	68 16 00 00 00       	pushq  $0x16
    1199:	f2 e9 81 fe ff ff    	bnd jmpq 1020 <.plt>
    119f:	90                   	nop
    11a0:	f3 0f 1e fa          	endbr64 
    11a4:	68 17 00 00 00       	pushq  $0x17
    11a9:	f2 e9 71 fe ff ff    	bnd jmpq 1020 <.plt>
    11af:	90                   	nop
    11b0:	f3 0f 1e fa          	endbr64 
    11b4:	68 18 00 00 00       	pushq  $0x18
    11b9:	f2 e9 61 fe ff ff    	bnd jmpq 1020 <.plt>
    11bf:	90                   	nop
    11c0:	f3 0f 1e fa          	endbr64 
    11c4:	68 19 00 00 00       	pushq  $0x19
    11c9:	f2 e9 51 fe ff ff    	bnd jmpq 1020 <.plt>
    11cf:	90                   	nop
    11d0:	f3 0f 1e fa          	endbr64 
    11d4:	68 1a 00 00 00       	pushq  $0x1a
    11d9:	f2 e9 41 fe ff ff    	bnd jmpq 1020 <.plt>
    11df:	90                   	nop
    11e0:	f3 0f 1e fa          	endbr64 
    11e4:	68 1b 00 00 00       	pushq  $0x1b
    11e9:	f2 e9 31 fe ff ff    	bnd jmpq 1020 <.plt>
    11ef:	90                   	nop

Disassembly of section .plt.got:

00000000000011f0 <__cxa_finalize@plt>:
    11f0:	f3 0f 1e fa          	endbr64 
    11f4:	f2 ff 25 fd 3d 00 00 	bnd jmpq *0x3dfd(%rip)        # 4ff8 <__cxa_finalize@GLIBC_2.2.5>
    11fb:	0f 1f 44 00 00       	nopl   0x0(%rax,%rax,1)

Disassembly of section .plt.sec:

0000000000001200 <getenv@plt>:
    1200:	f3 0f 1e fa          	endbr64 
    1204:	f2 ff 25 ed 3c 00 00 	bnd jmpq *0x3ced(%rip)        # 4ef8 <getenv@GLIBC_2.2.5>
    120b:	0f 1f 44 00 00       	nopl   0x0(%rax,%rax,1)

0000000000001210 <strcasecmp@plt>:
    1210:	f3 0f 1e fa          	endbr64 
    1214:	f2 ff 25 e5 3c 00 00 	bnd jmpq *0x3ce5(%rip)        # 4f00 <strcasecmp@GLIBC_2.2.5>
    121b:	0f 1f 44 00 00       	nopl   0x0(%rax,%rax,1)

0000000000001220 <__errno_location@plt>:
    1220:	f3 0f 1e fa          	endbr64 
    1224:	f2 ff 25 dd 3c 00 00 	bnd jmpq *0x3cdd(%rip)        # 4f08 <__errno_location@GLIBC_2.2.5>
    122b:	0f 1f 44 00 00       	nopl   0x0(%rax,%rax,1)

0000000000001230 <strcpy@plt>:
    1230:	f3 0f 1e fa          	endbr64 
    1234:	f2 ff 25 d5 3c 00 00 	bnd jmpq *0x3cd5(%rip)        # 4f10 <strcpy@GLIBC_2.2.5>
    123b:	0f 1f 44 00 00       	nopl   0x0(%rax,%rax,1)

0000000000001240 <puts@plt>:
    1240:	f3 0f 1e fa          	endbr64 
    1244:	f2 ff 25 cd 3c 00 00 	bnd jmpq *0x3ccd(%rip)        # 4f18 <puts@GLIBC_2.2.5>
    124b:	0f 1f 44 00 00       	nopl   0x0(%rax,%rax,1)

0000000000001250 <write@plt>:
    1250:	f3 0f 1e fa          	endbr64 
    1254:	f2 ff 25 c5 3c 00 00 	bnd jmpq *0x3cc5(%rip)        # 4f20 <write@GLIBC_2.2.5>
    125b:	0f 1f 44 00 00       	nopl   0x0(%rax,%rax,1)

0000000000001260 <strlen@plt>:
    1260:	f3 0f 1e fa          	endbr64 
    1264:	f2 ff 25 bd 3c 00 00 	bnd jmpq *0x3cbd(%rip)        # 4f28 <strlen@GLIBC_2.2.5>
    126b:	0f 1f 44 00 00       	nopl   0x0(%rax,%rax,1)

0000000000001270 <__stack_chk_fail@plt>:
    1270:	f3 0f 1e fa          	endbr64 
    1274:	f2 ff 25 b5 3c 00 00 	bnd jmpq *0x3cb5(%rip)        # 4f30 <__stack_chk_fail@GLIBC_2.4>
    127b:	0f 1f 44 00 00       	nopl   0x0(%rax,%rax,1)

0000000000001280 <alarm@plt>:
    1280:	f3 0f 1e fa          	endbr64 
    1284:	f2 ff 25 ad 3c 00 00 	bnd jmpq *0x3cad(%rip)        # 4f38 <alarm@GLIBC_2.2.5>
    128b:	0f 1f 44 00 00       	nopl   0x0(%rax,%rax,1)

0000000000001290 <close@plt>:
    1290:	f3 0f 1e fa          	endbr64 
    1294:	f2 ff 25 a5 3c 00 00 	bnd jmpq *0x3ca5(%rip)        # 4f40 <close@GLIBC_2.2.5>
    129b:	0f 1f 44 00 00       	nopl   0x0(%rax,%rax,1)

00000000000012a0 <read@plt>:
    12a0:	f3 0f 1e fa          	endbr64 
    12a4:	f2 ff 25 9d 3c 00 00 	bnd jmpq *0x3c9d(%rip)        # 4f48 <read@GLIBC_2.2.5>
    12ab:	0f 1f 44 00 00       	nopl   0x0(%rax,%rax,1)

00000000000012b0 <fgets@plt>:
    12b0:	f3 0f 1e fa          	endbr64 
    12b4:	f2 ff 25 95 3c 00 00 	bnd jmpq *0x3c95(%rip)        # 4f50 <fgets@GLIBC_2.2.5>
    12bb:	0f 1f 44 00 00       	nopl   0x0(%rax,%rax,1)

00000000000012c0 <signal@plt>:
    12c0:	f3 0f 1e fa          	endbr64 
    12c4:	f2 ff 25 8d 3c 00 00 	bnd jmpq *0x3c8d(%rip)        # 4f58 <signal@GLIBC_2.2.5>
    12cb:	0f 1f 44 00 00       	nopl   0x0(%rax,%rax,1)

00000000000012d0 <gethostbyname@plt>:
    12d0:	f3 0f 1e fa          	endbr64 
    12d4:	f2 ff 25 85 3c 00 00 	bnd jmpq *0x3c85(%rip)        # 4f60 <gethostbyname@GLIBC_2.2.5>
    12db:	0f 1f 44 00 00       	nopl   0x0(%rax,%rax,1)

00000000000012e0 <__memmove_chk@plt>:
    12e0:	f3 0f 1e fa          	endbr64 
    12e4:	f2 ff 25 7d 3c 00 00 	bnd jmpq *0x3c7d(%rip)        # 4f68 <__memmove_chk@GLIBC_2.3.4>
    12eb:	0f 1f 44 00 00       	nopl   0x0(%rax,%rax,1)

00000000000012f0 <strtol@plt>:
    12f0:	f3 0f 1e fa          	endbr64 
    12f4:	f2 ff 25 75 3c 00 00 	bnd jmpq *0x3c75(%rip)        # 4f70 <strtol@GLIBC_2.2.5>
    12fb:	0f 1f 44 00 00       	nopl   0x0(%rax,%rax,1)

0000000000001300 <fflush@plt>:
    1300:	f3 0f 1e fa          	endbr64 
    1304:	f2 ff 25 6d 3c 00 00 	bnd jmpq *0x3c6d(%rip)        # 4f78 <fflush@GLIBC_2.2.5>
    130b:	0f 1f 44 00 00       	nopl   0x0(%rax,%rax,1)

0000000000001310 <__isoc99_sscanf@plt>:
    1310:	f3 0f 1e fa          	endbr64 
    1314:	f2 ff 25 65 3c 00 00 	bnd jmpq *0x3c65(%rip)        # 4f80 <__isoc99_sscanf@GLIBC_2.7>
    131b:	0f 1f 44 00 00       	nopl   0x0(%rax,%rax,1)

0000000000001320 <__printf_chk@plt>:
    1320:	f3 0f 1e fa          	endbr64 
    1324:	f2 ff 25 5d 3c 00 00 	bnd jmpq *0x3c5d(%rip)        # 4f88 <__printf_chk@GLIBC_2.3.4>
    132b:	0f 1f 44 00 00       	nopl   0x0(%rax,%rax,1)

0000000000001330 <fopen@plt>:
    1330:	f3 0f 1e fa          	endbr64 
    1334:	f2 ff 25 55 3c 00 00 	bnd jmpq *0x3c55(%rip)        # 4f90 <fopen@GLIBC_2.2.5>
    133b:	0f 1f 44 00 00       	nopl   0x0(%rax,%rax,1)

0000000000001340 <gethostname@plt>:
    1340:	f3 0f 1e fa          	endbr64 
    1344:	f2 ff 25 4d 3c 00 00 	bnd jmpq *0x3c4d(%rip)        # 4f98 <gethostname@GLIBC_2.2.5>
    134b:	0f 1f 44 00 00       	nopl   0x0(%rax,%rax,1)

0000000000001350 <exit@plt>:
    1350:	f3 0f 1e fa          	endbr64 
    1354:	f2 ff 25 45 3c 00 00 	bnd jmpq *0x3c45(%rip)        # 4fa0 <exit@GLIBC_2.2.5>
    135b:	0f 1f 44 00 00       	nopl   0x0(%rax,%rax,1)

0000000000001360 <connect@plt>:
    1360:	f3 0f 1e fa          	endbr64 
    1364:	f2 ff 25 3d 3c 00 00 	bnd jmpq *0x3c3d(%rip)        # 4fa8 <connect@GLIBC_2.2.5>
    136b:	0f 1f 44 00 00       	nopl   0x0(%rax,%rax,1)

0000000000001370 <__fprintf_chk@plt>:
    1370:	f3 0f 1e fa          	endbr64 
    1374:	f2 ff 25 35 3c 00 00 	bnd jmpq *0x3c35(%rip)        # 4fb0 <__fprintf_chk@GLIBC_2.3.4>
    137b:	0f 1f 44 00 00       	nopl   0x0(%rax,%rax,1)

0000000000001380 <sleep@plt>:
    1380:	f3 0f 1e fa          	endbr64 
    1384:	f2 ff 25 2d 3c 00 00 	bnd jmpq *0x3c2d(%rip)        # 4fb8 <sleep@GLIBC_2.2.5>
    138b:	0f 1f 44 00 00       	nopl   0x0(%rax,%rax,1)

0000000000001390 <__ctype_b_loc@plt>:
    1390:	f3 0f 1e fa          	endbr64 
    1394:	f2 ff 25 25 3c 00 00 	bnd jmpq *0x3c25(%rip)        # 4fc0 <__ctype_b_loc@GLIBC_2.3>
    139b:	0f 1f 44 00 00       	nopl   0x0(%rax,%rax,1)

00000000000013a0 <__sprintf_chk@plt>:
    13a0:	f3 0f 1e fa          	endbr64 
    13a4:	f2 ff 25 1d 3c 00 00 	bnd jmpq *0x3c1d(%rip)        # 4fc8 <__sprintf_chk@GLIBC_2.3.4>
    13ab:	0f 1f 44 00 00       	nopl   0x0(%rax,%rax,1)

00000000000013b0 <socket@plt>:
    13b0:	f3 0f 1e fa          	endbr64 
    13b4:	f2 ff 25 15 3c 00 00 	bnd jmpq *0x3c15(%rip)        # 4fd0 <socket@GLIBC_2.2.5>
    13bb:	0f 1f 44 00 00       	nopl   0x0(%rax,%rax,1)

Disassembly of section .text:

00000000000013c0 <_start>:
    13c0:	f3 0f 1e fa          	endbr64 
    13c4:	31 ed                	xor    %ebp,%ebp
    13c6:	49 89 d1             	mov    %rdx,%r9
    13c9:	5e                   	pop    %rsi
    13ca:	48 89 e2             	mov    %rsp,%rdx
    13cd:	48 83 e4 f0          	and    $0xfffffffffffffff0,%rsp
    13d1:	50                   	push   %rax
    13d2:	54                   	push   %rsp
    13d3:	4c 8d 05 e6 18 00 00 	lea    0x18e6(%rip),%r8        # 2cc0 <__libc_csu_fini>
    13da:	48 8d 0d 6f 18 00 00 	lea    0x186f(%rip),%rcx        # 2c50 <__libc_csu_init>
    13e1:	48 8d 3d c1 00 00 00 	lea    0xc1(%rip),%rdi        # 14a9 <main>
    13e8:	ff 15 f2 3b 00 00    	callq  *0x3bf2(%rip)        # 4fe0 <__libc_start_main@GLIBC_2.2.5>
    13ee:	f4                   	hlt    
    13ef:	90                   	nop

00000000000013f0 <deregister_tm_clones>:
    13f0:	48 8d 3d 89 42 00 00 	lea    0x4289(%rip),%rdi        # 5680 <stdout@@GLIBC_2.2.5>
    13f7:	48 8d 05 82 42 00 00 	lea    0x4282(%rip),%rax        # 5680 <stdout@@GLIBC_2.2.5>
    13fe:	48 39 f8             	cmp    %rdi,%rax
    1401:	74 15                	je     1418 <deregister_tm_clones+0x28>
    1403:	48 8b 05 ce 3b 00 00 	mov    0x3bce(%rip),%rax        # 4fd8 <_ITM_deregisterTMCloneTable>
    140a:	48 85 c0             	test   %rax,%rax
    140d:	74 09                	je     1418 <deregister_tm_clones+0x28>
    140f:	ff e0                	jmpq   *%rax
    1411:	0f 1f 80 00 00 00 00 	nopl   0x0(%rax)
    1418:	c3                   	retq   
    1419:	0f 1f 80 00 00 00 00 	nopl   0x0(%rax)

0000000000001420 <register_tm_clones>:
    1420:	48 8d 3d 59 42 00 00 	lea    0x4259(%rip),%rdi        # 5680 <stdout@@GLIBC_2.2.5>
    1427:	48 8d 35 52 42 00 00 	lea    0x4252(%rip),%rsi        # 5680 <stdout@@GLIBC_2.2.5>
    142e:	48 29 fe             	sub    %rdi,%rsi
    1431:	48 89 f0             	mov    %rsi,%rax
    1434:	48 c1 ee 3f          	shr    $0x3f,%rsi
    1438:	48 c1 f8 03          	sar    $0x3,%rax
    143c:	48 01 c6             	add    %rax,%rsi
    143f:	48 d1 fe             	sar    %rsi
    1442:	74 14                	je     1458 <register_tm_clones+0x38>
    1444:	48 8b 05 a5 3b 00 00 	mov    0x3ba5(%rip),%rax        # 4ff0 <_ITM_registerTMCloneTable>
    144b:	48 85 c0             	test   %rax,%rax
    144e:	74 08                	je     1458 <register_tm_clones+0x38>
    1450:	ff e0                	jmpq   *%rax
    1452:	66 0f 1f 44 00 00    	nopw   0x0(%rax,%rax,1)
    1458:	c3                   	retq   
    1459:	0f 1f 80 00 00 00 00 	nopl   0x0(%rax)

0000000000001460 <__do_global_dtors_aux>:
    1460:	f3 0f 1e fa          	endbr64 
    1464:	80 3d 3d 42 00 00 00 	cmpb   $0x0,0x423d(%rip)        # 56a8 <completed.0>
    146b:	75 2b                	jne    1498 <__do_global_dtors_aux+0x38>
    146d:	55                   	push   %rbp
    146e:	48 83 3d 82 3b 00 00 	cmpq   $0x0,0x3b82(%rip)        # 4ff8 <__cxa_finalize@GLIBC_2.2.5>
    1475:	00 
    1476:	48 89 e5             	mov    %rsp,%rbp
    1479:	74 0c                	je     1487 <__do_global_dtors_aux+0x27>
    147b:	48 8b 3d 86 3b 00 00 	mov    0x3b86(%rip),%rdi        # 5008 <__dso_handle>
    1482:	e8 69 fd ff ff       	callq  11f0 <__cxa_finalize@plt>
    1487:	e8 64 ff ff ff       	callq  13f0 <deregister_tm_clones>
    148c:	c6 05 15 42 00 00 01 	movb   $0x1,0x4215(%rip)        # 56a8 <completed.0>
    1493:	5d                   	pop    %rbp
    1494:	c3                   	retq   
    1495:	0f 1f 00             	nopl   (%rax)
    1498:	c3                   	retq   
    1499:	0f 1f 80 00 00 00 00 	nopl   0x0(%rax)

00000000000014a0 <frame_dummy>:
    14a0:	f3 0f 1e fa          	endbr64 
    14a4:	e9 77 ff ff ff       	jmpq   1420 <register_tm_clones>

00000000000014a9 <main>:
    14a9:	f3 0f 1e fa          	endbr64 
    14ad:	53                   	push   %rbx
    14ae:	83 ff 01             	cmp    $0x1,%edi
    14b1:	0f 84 f8 00 00 00    	je     15af <main+0x106>
    14b7:	48 89 f3             	mov    %rsi,%rbx
    14ba:	83 ff 02             	cmp    $0x2,%edi
    14bd:	0f 85 21 01 00 00    	jne    15e4 <main+0x13b>
    14c3:	48 8b 7e 08          	mov    0x8(%rsi),%rdi
    14c7:	48 8d 35 36 1b 00 00 	lea    0x1b36(%rip),%rsi        # 3004 <_IO_stdin_used+0x4>
    14ce:	e8 5d fe ff ff       	callq  1330 <fopen@plt>
    14d3:	48 89 05 d6 41 00 00 	mov    %rax,0x41d6(%rip)        # 56b0 <infile>
    14da:	48 85 c0             	test   %rax,%rax
    14dd:	0f 84 df 00 00 00    	je     15c2 <main+0x119>
    14e3:	e8 ab 06 00 00       	callq  1b93 <initialize_bomb>
    14e8:	48 8d 3d 99 1b 00 00 	lea    0x1b99(%rip),%rdi        # 3088 <_IO_stdin_used+0x88>
    14ef:	e8 4c fd ff ff       	callq  1240 <puts@plt>
    14f4:	48 8d 3d cd 1b 00 00 	lea    0x1bcd(%rip),%rdi        # 30c8 <_IO_stdin_used+0xc8>
    14fb:	e8 40 fd ff ff       	callq  1240 <puts@plt>
    1500:	e8 8e 09 00 00       	callq  1e93 <read_line>
    1505:	48 89 c7             	mov    %rax,%rdi
    1508:	e8 fa 00 00 00       	callq  1607 <phase_1>
    150d:	e8 bc 0a 00 00       	callq  1fce <phase_defused>
    1512:	48 8d 3d df 1b 00 00 	lea    0x1bdf(%rip),%rdi        # 30f8 <_IO_stdin_used+0xf8>
    1519:	e8 22 fd ff ff       	callq  1240 <puts@plt>
    151e:	e8 70 09 00 00       	callq  1e93 <read_line>
    1523:	48 89 c7             	mov    %rax,%rdi
    1526:	e8 00 01 00 00       	callq  162b <phase_2>
    152b:	e8 9e 0a 00 00       	callq  1fce <phase_defused>
    1530:	48 8d 3d 06 1b 00 00 	lea    0x1b06(%rip),%rdi        # 303d <_IO_stdin_used+0x3d>
    1537:	e8 04 fd ff ff       	callq  1240 <puts@plt>
    153c:	e8 52 09 00 00       	callq  1e93 <read_line>
    1541:	48 89 c7             	mov    %rax,%rdi
    1544:	e8 50 01 00 00       	callq  1699 <phase_3>
    1549:	e8 80 0a 00 00       	callq  1fce <phase_defused>
    154e:	48 8d 3d 06 1b 00 00 	lea    0x1b06(%rip),%rdi        # 305b <_IO_stdin_used+0x5b>
    1555:	e8 e6 fc ff ff       	callq  1240 <puts@plt>
    155a:	e8 34 09 00 00       	callq  1e93 <read_line>
    155f:	48 89 c7             	mov    %rax,%rdi
    1562:	e8 53 02 00 00       	callq  17ba <phase_4>
    1567:	e8 62 0a 00 00       	callq  1fce <phase_defused>
    156c:	48 8d 3d b5 1b 00 00 	lea    0x1bb5(%rip),%rdi        # 3128 <_IO_stdin_used+0x128>
    1573:	e8 c8 fc ff ff       	callq  1240 <puts@plt>
    1578:	e8 16 09 00 00       	callq  1e93 <read_line>
    157d:	48 89 c7             	mov    %rax,%rdi
    1580:	e8 aa 02 00 00       	callq  182f <phase_5>
    1585:	e8 44 0a 00 00       	callq  1fce <phase_defused>
    158a:	48 8d 3d d9 1a 00 00 	lea    0x1ad9(%rip),%rdi        # 306a <_IO_stdin_used+0x6a>
    1591:	e8 aa fc ff ff       	callq  1240 <puts@plt>
    1596:	e8 f8 08 00 00       	callq  1e93 <read_line>
    159b:	48 89 c7             	mov    %rax,%rdi
    159e:	e8 1a 03 00 00       	callq  18bd <phase_6>
    15a3:	e8 26 0a 00 00       	callq  1fce <phase_defused>
    15a8:	b8 00 00 00 00       	mov    $0x0,%eax
    15ad:	5b                   	pop    %rbx
    15ae:	c3                   	retq   
    15af:	48 8b 05 da 40 00 00 	mov    0x40da(%rip),%rax        # 5690 <stdin@@GLIBC_2.2.5>
    15b6:	48 89 05 f3 40 00 00 	mov    %rax,0x40f3(%rip)        # 56b0 <infile>
    15bd:	e9 21 ff ff ff       	jmpq   14e3 <main+0x3a>
    15c2:	48 8b 4b 08          	mov    0x8(%rbx),%rcx
    15c6:	48 8b 13             	mov    (%rbx),%rdx
    15c9:	48 8d 35 36 1a 00 00 	lea    0x1a36(%rip),%rsi        # 3006 <_IO_stdin_used+0x6>
    15d0:	bf 01 00 00 00       	mov    $0x1,%edi
    15d5:	e8 46 fd ff ff       	callq  1320 <__printf_chk@plt>
    15da:	bf 08 00 00 00       	mov    $0x8,%edi
    15df:	e8 6c fd ff ff       	callq  1350 <exit@plt>
    15e4:	48 8b 16             	mov    (%rsi),%rdx
    15e7:	48 8d 35 35 1a 00 00 	lea    0x1a35(%rip),%rsi        # 3023 <_IO_stdin_used+0x23>
    15ee:	bf 01 00 00 00       	mov    $0x1,%edi
    15f3:	b8 00 00 00 00       	mov    $0x0,%eax
    15f8:	e8 23 fd ff ff       	callq  1320 <__printf_chk@plt>
    15fd:	bf 08 00 00 00       	mov    $0x8,%edi
    1602:	e8 49 fd ff ff       	callq  1350 <exit@plt>

0000000000001607 <phase_1>:
    1607:	f3 0f 1e fa          	endbr64 
    160b:	48 83 ec 08          	sub    $0x8,%rsp
    160f:	48 8d 35 36 1b 00 00 	lea    0x1b36(%rip),%rsi        # 314c <_IO_stdin_used+0x14c>
    1616:	e8 18 05 00 00       	callq  1b33 <strings_not_equal>
    161b:	85 c0                	test   %eax,%eax
    161d:	75 05                	jne    1624 <phase_1+0x1d>
    161f:	48 83 c4 08          	add    $0x8,%rsp
    1623:	c3                   	retq   
    1624:	e8 e3 07 00 00       	callq  1e0c <explode_bomb>
    1629:	eb f4                	jmp    161f <phase_1+0x18>

000000000000162b <phase_2>:
    162b:	f3 0f 1e fa          	endbr64 
    162f:	55                   	push   %rbp
    1630:	53                   	push   %rbx
    1631:	48 83 ec 28          	sub    $0x28,%rsp
    1635:	64 48 8b 04 25 28 00 	mov    %fs:0x28,%rax
    163c:	00 00 
    163e:	48 89 44 24 18       	mov    %rax,0x18(%rsp)
    1643:	31 c0                	xor    %eax,%eax
    1645:	48 89 e6             	mov    %rsp,%rsi
    1648:	e8 01 08 00 00       	callq  1e4e <read_six_numbers>
    164d:	83 3c 24 01          	cmpl   $0x1,(%rsp)
    1651:	75 0a                	jne    165d <phase_2+0x32>
    1653:	48 89 e3             	mov    %rsp,%rbx
    1656:	48 8d 6c 24 14       	lea    0x14(%rsp),%rbp
    165b:	eb 10                	jmp    166d <phase_2+0x42>
    165d:	e8 aa 07 00 00       	callq  1e0c <explode_bomb>
    1662:	eb ef                	jmp    1653 <phase_2+0x28>
    1664:	48 83 c3 04          	add    $0x4,%rbx
    1668:	48 39 eb             	cmp    %rbp,%rbx
    166b:	74 10                	je     167d <phase_2+0x52>
    166d:	8b 03                	mov    (%rbx),%eax
    166f:	01 c0                	add    %eax,%eax
    1671:	39 43 04             	cmp    %eax,0x4(%rbx)
    1674:	74 ee                	je     1664 <phase_2+0x39>
    1676:	e8 91 07 00 00       	callq  1e0c <explode_bomb>
    167b:	eb e7                	jmp    1664 <phase_2+0x39>
    167d:	48 8b 44 24 18       	mov    0x18(%rsp),%rax
    1682:	64 48 2b 04 25 28 00 	sub    %fs:0x28,%rax
    1689:	00 00 
    168b:	75 07                	jne    1694 <phase_2+0x69>
    168d:	48 83 c4 28          	add    $0x28,%rsp
    1691:	5b                   	pop    %rbx
    1692:	5d                   	pop    %rbp
    1693:	c3                   	retq   
    1694:	e8 d7 fb ff ff       	callq  1270 <__stack_chk_fail@plt>

0000000000001699 <phase_3>:
    1699:	f3 0f 1e fa          	endbr64 
    169d:	48 83 ec 18          	sub    $0x18,%rsp
    16a1:	64 48 8b 04 25 28 00 	mov    %fs:0x28,%rax
    16a8:	00 00 
    16aa:	48 89 44 24 08       	mov    %rax,0x8(%rsp)
    16af:	31 c0                	xor    %eax,%eax
    16b1:	48 8d 4c 24 04       	lea    0x4(%rsp),%rcx
    16b6:	48 89 e2             	mov    %rsp,%rdx
    16b9:	48 8d 35 f5 1c 00 00 	lea    0x1cf5(%rip),%rsi        # 33b5 <array.0+0x225>
    16c0:	e8 4b fc ff ff       	callq  1310 <__isoc99_sscanf@plt>
    16c5:	83 f8 01             	cmp    $0x1,%eax
    16c8:	7e 1e                	jle    16e8 <phase_3+0x4f>
    16ca:	83 3c 24 07          	cmpl   $0x7,(%rsp)
    16ce:	0f 87 9a 00 00 00    	ja     176e <phase_3+0xd5>
    16d4:	8b 04 24             	mov    (%rsp),%eax
    16d7:	48 8d 15 92 1a 00 00 	lea    0x1a92(%rip),%rdx        # 3170 <_IO_stdin_used+0x170>
    16de:	48 63 04 82          	movslq (%rdx,%rax,4),%rax
    16e2:	48 01 d0             	add    %rdx,%rax
    16e5:	3e ff e0             	notrack jmpq *%rax
    16e8:	e8 1f 07 00 00       	callq  1e0c <explode_bomb>
    16ed:	eb db                	jmp    16ca <phase_3+0x31>
    16ef:	b8 b4 02 00 00       	mov    $0x2b4,%eax
    16f4:	2d a9 00 00 00       	sub    $0xa9,%eax
    16f9:	05 82 03 00 00       	add    $0x382,%eax
    16fe:	2d bf 00 00 00       	sub    $0xbf,%eax
    1703:	05 bf 00 00 00       	add    $0xbf,%eax
    1708:	2d bf 00 00 00       	sub    $0xbf,%eax
    170d:	05 bf 00 00 00       	add    $0xbf,%eax
    1712:	2d bf 00 00 00       	sub    $0xbf,%eax
    1717:	83 3c 24 05          	cmpl   $0x5,(%rsp)
    171b:	7f 06                	jg     1723 <phase_3+0x8a>
    171d:	39 44 24 04          	cmp    %eax,0x4(%rsp)
    1721:	74 05                	je     1728 <phase_3+0x8f>
    1723:	e8 e4 06 00 00       	callq  1e0c <explode_bomb>
    1728:	48 8b 44 24 08       	mov    0x8(%rsp),%rax
    172d:	64 48 2b 04 25 28 00 	sub    %fs:0x28,%rax
    1734:	00 00 
    1736:	75 42                	jne    177a <phase_3+0xe1>
    1738:	48 83 c4 18          	add    $0x18,%rsp
    173c:	c3                   	retq   
    173d:	b8 00 00 00 00       	mov    $0x0,%eax
    1742:	eb b0                	jmp    16f4 <phase_3+0x5b>
    1744:	b8 00 00 00 00       	mov    $0x0,%eax
    1749:	eb ae                	jmp    16f9 <phase_3+0x60>
    174b:	b8 00 00 00 00       	mov    $0x0,%eax
    1750:	eb ac                	jmp    16fe <phase_3+0x65>
    1752:	b8 00 00 00 00       	mov    $0x0,%eax
    1757:	eb aa                	jmp    1703 <phase_3+0x6a>
    1759:	b8 00 00 00 00       	mov    $0x0,%eax
    175e:	eb a8                	jmp    1708 <phase_3+0x6f>
    1760:	b8 00 00 00 00       	mov    $0x0,%eax
    1765:	eb a6                	jmp    170d <phase_3+0x74>
    1767:	b8 00 00 00 00       	mov    $0x0,%eax
    176c:	eb a4                	jmp    1712 <phase_3+0x79>
    176e:	e8 99 06 00 00       	callq  1e0c <explode_bomb>
    1773:	b8 00 00 00 00       	mov    $0x0,%eax
    1778:	eb 9d                	jmp    1717 <phase_3+0x7e>
    177a:	e8 f1 fa ff ff       	callq  1270 <__stack_chk_fail@plt>

000000000000177f <func4>:
    177f:	f3 0f 1e fa          	endbr64 
    1783:	b8 00 00 00 00       	mov    $0x0,%eax
    1788:	85 ff                	test   %edi,%edi
    178a:	7e 2d                	jle    17b9 <func4+0x3a>
    178c:	41 54                	push   %r12
    178e:	55                   	push   %rbp
    178f:	53                   	push   %rbx
    1790:	89 fb                	mov    %edi,%ebx
    1792:	89 f5                	mov    %esi,%ebp
    1794:	89 f0                	mov    %esi,%eax
    1796:	83 ff 01             	cmp    $0x1,%edi
    1799:	74 19                	je     17b4 <func4+0x35>
    179b:	8d 7f ff             	lea    -0x1(%rdi),%edi
    179e:	e8 dc ff ff ff       	callq  177f <func4>
    17a3:	44 8d 24 28          	lea    (%rax,%rbp,1),%r12d
    17a7:	8d 7b fe             	lea    -0x2(%rbx),%edi
    17aa:	89 ee                	mov    %ebp,%esi
    17ac:	e8 ce ff ff ff       	callq  177f <func4>
    17b1:	44 01 e0             	add    %r12d,%eax
    17b4:	5b                   	pop    %rbx
    17b5:	5d                   	pop    %rbp
    17b6:	41 5c                	pop    %r12
    17b8:	c3                   	retq   
    17b9:	c3                   	retq   

00000000000017ba <phase_4>:
    17ba:	f3 0f 1e fa          	endbr64 
    17be:	48 83 ec 18          	sub    $0x18,%rsp
    17c2:	64 48 8b 04 25 28 00 	mov    %fs:0x28,%rax
    17c9:	00 00 
    17cb:	48 89 44 24 08       	mov    %rax,0x8(%rsp)
    17d0:	31 c0                	xor    %eax,%eax
    17d2:	48 89 e1             	mov    %rsp,%rcx
    17d5:	48 8d 54 24 04       	lea    0x4(%rsp),%rdx
    17da:	48 8d 35 d4 1b 00 00 	lea    0x1bd4(%rip),%rsi        # 33b5 <array.0+0x225>
    17e1:	e8 2a fb ff ff       	callq  1310 <__isoc99_sscanf@plt>
    17e6:	83 f8 02             	cmp    $0x2,%eax
    17e9:	75 0b                	jne    17f6 <phase_4+0x3c>
    17eb:	8b 04 24             	mov    (%rsp),%eax
    17ee:	83 e8 02             	sub    $0x2,%eax
    17f1:	83 f8 02             	cmp    $0x2,%eax
    17f4:	76 05                	jbe    17fb <phase_4+0x41>
    17f6:	e8 11 06 00 00       	callq  1e0c <explode_bomb>
    17fb:	8b 34 24             	mov    (%rsp),%esi
    17fe:	bf 07 00 00 00       	mov    $0x7,%edi
    1803:	e8 77 ff ff ff       	callq  177f <func4>
    1808:	39 44 24 04          	cmp    %eax,0x4(%rsp)
    180c:	75 15                	jne    1823 <phase_4+0x69>
    180e:	48 8b 44 24 08       	mov    0x8(%rsp),%rax
    1813:	64 48 2b 04 25 28 00 	sub    %fs:0x28,%rax
    181a:	00 00 
    181c:	75 0c                	jne    182a <phase_4+0x70>
    181e:	48 83 c4 18          	add    $0x18,%rsp
    1822:	c3                   	retq   
    1823:	e8 e4 05 00 00       	callq  1e0c <explode_bomb>
    1828:	eb e4                	jmp    180e <phase_4+0x54>
    182a:	e8 41 fa ff ff       	callq  1270 <__stack_chk_fail@plt>

000000000000182f <phase_5>:
    182f:	f3 0f 1e fa          	endbr64 
    1833:	53                   	push   %rbx
    1834:	48 83 ec 10          	sub    $0x10,%rsp
    1838:	48 89 fb             	mov    %rdi,%rbx
    183b:	64 48 8b 04 25 28 00 	mov    %fs:0x28,%rax
    1842:	00 00 
    1844:	48 89 44 24 08       	mov    %rax,0x8(%rsp)
    1849:	31 c0                	xor    %eax,%eax
    184b:	e8 c2 02 00 00       	callq  1b12 <string_length>
    1850:	83 f8 06             	cmp    $0x6,%eax
    1853:	75 55                	jne    18aa <phase_5+0x7b>
    1855:	b8 00 00 00 00       	mov    $0x0,%eax
    185a:	48 8d 0d 2f 19 00 00 	lea    0x192f(%rip),%rcx        # 3190 <array.0>
    1861:	0f b6 14 03          	movzbl (%rbx,%rax,1),%edx
    1865:	83 e2 0f             	and    $0xf,%edx
    1868:	0f b6 14 11          	movzbl (%rcx,%rdx,1),%edx
    186c:	88 54 04 01          	mov    %dl,0x1(%rsp,%rax,1)
    1870:	48 83 c0 01          	add    $0x1,%rax
    1874:	48 83 f8 06          	cmp    $0x6,%rax
    1878:	75 e7                	jne    1861 <phase_5+0x32>
    187a:	c6 44 24 07 00       	movb   $0x0,0x7(%rsp)
    187f:	48 8d 7c 24 01       	lea    0x1(%rsp),%rdi
    1884:	48 8d 35 de 18 00 00 	lea    0x18de(%rip),%rsi        # 3169 <_IO_stdin_used+0x169>
    188b:	e8 a3 02 00 00       	callq  1b33 <strings_not_equal>
    1890:	85 c0                	test   %eax,%eax
    1892:	75 1d                	jne    18b1 <phase_5+0x82>
    1894:	48 8b 44 24 08       	mov    0x8(%rsp),%rax
    1899:	64 48 2b 04 25 28 00 	sub    %fs:0x28,%rax
    18a0:	00 00 
    18a2:	75 14                	jne    18b8 <phase_5+0x89>
    18a4:	48 83 c4 10          	add    $0x10,%rsp
    18a8:	5b                   	pop    %rbx
    18a9:	c3                   	retq   
    18aa:	e8 5d 05 00 00       	callq  1e0c <explode_bomb>
    18af:	eb a4                	jmp    1855 <phase_5+0x26>
    18b1:	e8 56 05 00 00       	callq  1e0c <explode_bomb>
    18b6:	eb dc                	jmp    1894 <phase_5+0x65>
    18b8:	e8 b3 f9 ff ff       	callq  1270 <__stack_chk_fail@plt>

00000000000018bd <phase_6>:
    18bd:	f3 0f 1e fa          	endbr64 
    18c1:	41 56                	push   %r14
    18c3:	41 55                	push   %r13
    18c5:	41 54                	push   %r12
    18c7:	55                   	push   %rbp
    18c8:	53                   	push   %rbx
    18c9:	48 83 ec 60          	sub    $0x60,%rsp
    18cd:	64 48 8b 04 25 28 00 	mov    %fs:0x28,%rax
    18d4:	00 00 
    18d6:	48 89 44 24 58       	mov    %rax,0x58(%rsp)
    18db:	31 c0                	xor    %eax,%eax
    18dd:	49 89 e5             	mov    %rsp,%r13
    18e0:	4c 89 ee             	mov    %r13,%rsi
    18e3:	e8 66 05 00 00       	callq  1e4e <read_six_numbers>
    18e8:	41 be 01 00 00 00    	mov    $0x1,%r14d
    18ee:	49 89 e4             	mov    %rsp,%r12
    18f1:	eb 28                	jmp    191b <phase_6+0x5e>
    18f3:	e8 14 05 00 00       	callq  1e0c <explode_bomb>
    18f8:	eb 30                	jmp    192a <phase_6+0x6d>
    18fa:	48 83 c3 01          	add    $0x1,%rbx
    18fe:	83 fb 05             	cmp    $0x5,%ebx
    1901:	7f 10                	jg     1913 <phase_6+0x56>
    1903:	41 8b 04 9c          	mov    (%r12,%rbx,4),%eax
    1907:	39 45 00             	cmp    %eax,0x0(%rbp)
    190a:	75 ee                	jne    18fa <phase_6+0x3d>
    190c:	e8 fb 04 00 00       	callq  1e0c <explode_bomb>
    1911:	eb e7                	jmp    18fa <phase_6+0x3d>
    1913:	49 83 c6 01          	add    $0x1,%r14
    1917:	49 83 c5 04          	add    $0x4,%r13
    191b:	4c 89 ed             	mov    %r13,%rbp
    191e:	41 8b 45 00          	mov    0x0(%r13),%eax
    1922:	83 e8 01             	sub    $0x1,%eax
    1925:	83 f8 05             	cmp    $0x5,%eax
    1928:	77 c9                	ja     18f3 <phase_6+0x36>
    192a:	41 83 fe 05          	cmp    $0x5,%r14d
    192e:	7f 05                	jg     1935 <phase_6+0x78>
    1930:	4c 89 f3             	mov    %r14,%rbx
    1933:	eb ce                	jmp    1903 <phase_6+0x46>
    1935:	be 00 00 00 00       	mov    $0x0,%esi
    193a:	8b 0c b4             	mov    (%rsp,%rsi,4),%ecx
    193d:	b8 01 00 00 00       	mov    $0x1,%eax
    1942:	48 8d 15 e7 38 00 00 	lea    0x38e7(%rip),%rdx        # 5230 <node1>
    1949:	83 f9 01             	cmp    $0x1,%ecx
    194c:	7e 0b                	jle    1959 <phase_6+0x9c>
    194e:	48 8b 52 08          	mov    0x8(%rdx),%rdx
    1952:	83 c0 01             	add    $0x1,%eax
    1955:	39 c8                	cmp    %ecx,%eax
    1957:	75 f5                	jne    194e <phase_6+0x91>
    1959:	48 89 54 f4 20       	mov    %rdx,0x20(%rsp,%rsi,8)
    195e:	48 83 c6 01          	add    $0x1,%rsi
    1962:	48 83 fe 06          	cmp    $0x6,%rsi
    1966:	75 d2                	jne    193a <phase_6+0x7d>
    1968:	48 8b 5c 24 20       	mov    0x20(%rsp),%rbx
    196d:	48 8b 44 24 28       	mov    0x28(%rsp),%rax
    1972:	48 89 43 08          	mov    %rax,0x8(%rbx)
    1976:	48 8b 54 24 30       	mov    0x30(%rsp),%rdx
    197b:	48 89 50 08          	mov    %rdx,0x8(%rax)
    197f:	48 8b 44 24 38       	mov    0x38(%rsp),%rax
    1984:	48 89 42 08          	mov    %rax,0x8(%rdx)
    1988:	48 8b 54 24 40       	mov    0x40(%rsp),%rdx
    198d:	48 89 50 08          	mov    %rdx,0x8(%rax)
    1991:	48 8b 44 24 48       	mov    0x48(%rsp),%rax
    1996:	48 89 42 08          	mov    %rax,0x8(%rdx)
    199a:	48 c7 40 08 00 00 00 	movq   $0x0,0x8(%rax)
    19a1:	00 
    19a2:	bd 05 00 00 00       	mov    $0x5,%ebp
    19a7:	eb 09                	jmp    19b2 <phase_6+0xf5>
    19a9:	48 8b 5b 08          	mov    0x8(%rbx),%rbx
    19ad:	83 ed 01             	sub    $0x1,%ebp
    19b0:	74 11                	je     19c3 <phase_6+0x106>
    19b2:	48 8b 43 08          	mov    0x8(%rbx),%rax
    19b6:	8b 00                	mov    (%rax),%eax
    19b8:	39 03                	cmp    %eax,(%rbx)
    19ba:	7d ed                	jge    19a9 <phase_6+0xec>
    19bc:	e8 4b 04 00 00       	callq  1e0c <explode_bomb>
    19c1:	eb e6                	jmp    19a9 <phase_6+0xec>
    19c3:	48 8b 44 24 58       	mov    0x58(%rsp),%rax
    19c8:	64 48 2b 04 25 28 00 	sub    %fs:0x28,%rax
    19cf:	00 00 
    19d1:	75 0d                	jne    19e0 <phase_6+0x123>
    19d3:	48 83 c4 60          	add    $0x60,%rsp
    19d7:	5b                   	pop    %rbx
    19d8:	5d                   	pop    %rbp
    19d9:	41 5c                	pop    %r12
    19db:	41 5d                	pop    %r13
    19dd:	41 5e                	pop    %r14
    19df:	c3                   	retq   
    19e0:	e8 8b f8 ff ff       	callq  1270 <__stack_chk_fail@plt>

00000000000019e5 <fun7>:
    19e5:	f3 0f 1e fa          	endbr64 
    19e9:	48 85 ff             	test   %rdi,%rdi
    19ec:	74 32                	je     1a20 <fun7+0x3b>
    19ee:	48 83 ec 08          	sub    $0x8,%rsp
    19f2:	8b 17                	mov    (%rdi),%edx
    19f4:	39 f2                	cmp    %esi,%edx
    19f6:	7f 0c                	jg     1a04 <fun7+0x1f>
    19f8:	b8 00 00 00 00       	mov    $0x0,%eax
    19fd:	75 12                	jne    1a11 <fun7+0x2c>
    19ff:	48 83 c4 08          	add    $0x8,%rsp
    1a03:	c3                   	retq   
    1a04:	48 8b 7f 08          	mov    0x8(%rdi),%rdi
    1a08:	e8 d8 ff ff ff       	callq  19e5 <fun7>
    1a0d:	01 c0                	add    %eax,%eax
    1a0f:	eb ee                	jmp    19ff <fun7+0x1a>
    1a11:	48 8b 7f 10          	mov    0x10(%rdi),%rdi
    1a15:	e8 cb ff ff ff       	callq  19e5 <fun7>
    1a1a:	8d 44 00 01          	lea    0x1(%rax,%rax,1),%eax
    1a1e:	eb df                	jmp    19ff <fun7+0x1a>
    1a20:	b8 ff ff ff ff       	mov    $0xffffffff,%eax
    1a25:	c3                   	retq   

0000000000001a26 <secret_phase>:
    1a26:	f3 0f 1e fa          	endbr64 
    1a2a:	53                   	push   %rbx
    1a2b:	e8 63 04 00 00       	callq  1e93 <read_line>
    1a30:	48 89 c7             	mov    %rax,%rdi
    1a33:	ba 0a 00 00 00       	mov    $0xa,%edx
    1a38:	be 00 00 00 00       	mov    $0x0,%esi
    1a3d:	e8 ae f8 ff ff       	callq  12f0 <strtol@plt>
    1a42:	48 89 c3             	mov    %rax,%rbx
    1a45:	8d 40 ff             	lea    -0x1(%rax),%eax
    1a48:	3d e8 03 00 00       	cmp    $0x3e8,%eax
    1a4d:	77 26                	ja     1a75 <secret_phase+0x4f>
    1a4f:	89 de                	mov    %ebx,%esi
    1a51:	48 8d 3d f8 36 00 00 	lea    0x36f8(%rip),%rdi        # 5150 <n1>
    1a58:	e8 88 ff ff ff       	callq  19e5 <fun7>
    1a5d:	83 f8 06             	cmp    $0x6,%eax
    1a60:	75 1a                	jne    1a7c <secret_phase+0x56>
    1a62:	48 8d 3d 37 17 00 00 	lea    0x1737(%rip),%rdi        # 31a0 <array.0+0x10>
    1a69:	e8 d2 f7 ff ff       	callq  1240 <puts@plt>
    1a6e:	e8 5b 05 00 00       	callq  1fce <phase_defused>
    1a73:	5b                   	pop    %rbx
    1a74:	c3                   	retq   
    1a75:	e8 92 03 00 00       	callq  1e0c <explode_bomb>
    1a7a:	eb d3                	jmp    1a4f <secret_phase+0x29>
    1a7c:	e8 8b 03 00 00       	callq  1e0c <explode_bomb>
    1a81:	eb df                	jmp    1a62 <secret_phase+0x3c>

0000000000001a83 <sig_handler>:
    1a83:	f3 0f 1e fa          	endbr64 
    1a87:	50                   	push   %rax
    1a88:	58                   	pop    %rax
    1a89:	48 83 ec 08          	sub    $0x8,%rsp
    1a8d:	48 8d 3d 34 17 00 00 	lea    0x1734(%rip),%rdi        # 31c8 <array.0+0x38>
    1a94:	e8 a7 f7 ff ff       	callq  1240 <puts@plt>
    1a99:	bf 03 00 00 00       	mov    $0x3,%edi
    1a9e:	e8 dd f8 ff ff       	callq  1380 <sleep@plt>
    1aa3:	48 8d 35 87 18 00 00 	lea    0x1887(%rip),%rsi        # 3331 <array.0+0x1a1>
    1aaa:	bf 01 00 00 00       	mov    $0x1,%edi
    1aaf:	b8 00 00 00 00       	mov    $0x0,%eax
    1ab4:	e8 67 f8 ff ff       	callq  1320 <__printf_chk@plt>
    1ab9:	48 8b 3d c0 3b 00 00 	mov    0x3bc0(%rip),%rdi        # 5680 <stdout@@GLIBC_2.2.5>
    1ac0:	e8 3b f8 ff ff       	callq  1300 <fflush@plt>
    1ac5:	bf 01 00 00 00       	mov    $0x1,%edi
    1aca:	e8 b1 f8 ff ff       	callq  1380 <sleep@plt>
    1acf:	48 8d 3d 63 18 00 00 	lea    0x1863(%rip),%rdi        # 3339 <array.0+0x1a9>
    1ad6:	e8 65 f7 ff ff       	callq  1240 <puts@plt>
    1adb:	bf 10 00 00 00       	mov    $0x10,%edi
    1ae0:	e8 6b f8 ff ff       	callq  1350 <exit@plt>

0000000000001ae5 <invalid_phase>:
    1ae5:	f3 0f 1e fa          	endbr64 
    1ae9:	50                   	push   %rax
    1aea:	58                   	pop    %rax
    1aeb:	48 83 ec 08          	sub    $0x8,%rsp
    1aef:	48 89 fa             	mov    %rdi,%rdx
    1af2:	48 8d 35 48 18 00 00 	lea    0x1848(%rip),%rsi        # 3341 <array.0+0x1b1>
    1af9:	bf 01 00 00 00       	mov    $0x1,%edi
    1afe:	b8 00 00 00 00       	mov    $0x0,%eax
    1b03:	e8 18 f8 ff ff       	callq  1320 <__printf_chk@plt>
    1b08:	bf 08 00 00 00       	mov    $0x8,%edi
    1b0d:	e8 3e f8 ff ff       	callq  1350 <exit@plt>

0000000000001b12 <string_length>:
    1b12:	f3 0f 1e fa          	endbr64 
    1b16:	80 3f 00             	cmpb   $0x0,(%rdi)
    1b19:	74 12                	je     1b2d <string_length+0x1b>
    1b1b:	b8 00 00 00 00       	mov    $0x0,%eax
    1b20:	48 83 c7 01          	add    $0x1,%rdi
    1b24:	83 c0 01             	add    $0x1,%eax
    1b27:	80 3f 00             	cmpb   $0x0,(%rdi)
    1b2a:	75 f4                	jne    1b20 <string_length+0xe>
    1b2c:	c3                   	retq   
    1b2d:	b8 00 00 00 00       	mov    $0x0,%eax
    1b32:	c3                   	retq   

0000000000001b33 <strings_not_equal>:
    1b33:	f3 0f 1e fa          	endbr64 
    1b37:	41 54                	push   %r12
    1b39:	55                   	push   %rbp
    1b3a:	53                   	push   %rbx
    1b3b:	48 89 fb             	mov    %rdi,%rbx
    1b3e:	48 89 f5             	mov    %rsi,%rbp
    1b41:	e8 cc ff ff ff       	callq  1b12 <string_length>
    1b46:	41 89 c4             	mov    %eax,%r12d
    1b49:	48 89 ef             	mov    %rbp,%rdi
    1b4c:	e8 c1 ff ff ff       	callq  1b12 <string_length>
    1b51:	89 c2                	mov    %eax,%edx
    1b53:	b8 01 00 00 00       	mov    $0x1,%eax
    1b58:	41 39 d4             	cmp    %edx,%r12d
    1b5b:	75 31                	jne    1b8e <strings_not_equal+0x5b>
    1b5d:	0f b6 13             	movzbl (%rbx),%edx
    1b60:	84 d2                	test   %dl,%dl
    1b62:	74 1e                	je     1b82 <strings_not_equal+0x4f>
    1b64:	b8 00 00 00 00       	mov    $0x0,%eax
    1b69:	38 54 05 00          	cmp    %dl,0x0(%rbp,%rax,1)
    1b6d:	75 1a                	jne    1b89 <strings_not_equal+0x56>
    1b6f:	48 83 c0 01          	add    $0x1,%rax
    1b73:	0f b6 14 03          	movzbl (%rbx,%rax,1),%edx
    1b77:	84 d2                	test   %dl,%dl
    1b79:	75 ee                	jne    1b69 <strings_not_equal+0x36>
    1b7b:	b8 00 00 00 00       	mov    $0x0,%eax
    1b80:	eb 0c                	jmp    1b8e <strings_not_equal+0x5b>
    1b82:	b8 00 00 00 00       	mov    $0x0,%eax
    1b87:	eb 05                	jmp    1b8e <strings_not_equal+0x5b>
    1b89:	b8 01 00 00 00       	mov    $0x1,%eax
    1b8e:	5b                   	pop    %rbx
    1b8f:	5d                   	pop    %rbp
    1b90:	41 5c                	pop    %r12
    1b92:	c3                   	retq   

0000000000001b93 <initialize_bomb>:
    1b93:	f3 0f 1e fa          	endbr64 
    1b97:	55                   	push   %rbp
    1b98:	53                   	push   %rbx
    1b99:	48 81 ec 00 10 00 00 	sub    $0x1000,%rsp
    1ba0:	48 83 0c 24 00       	orq    $0x0,(%rsp)
    1ba5:	48 81 ec 00 10 00 00 	sub    $0x1000,%rsp
    1bac:	48 83 0c 24 00       	orq    $0x0,(%rsp)
    1bb1:	48 83 ec 58          	sub    $0x58,%rsp
    1bb5:	64 48 8b 04 25 28 00 	mov    %fs:0x28,%rax
    1bbc:	00 00 
    1bbe:	48 89 84 24 48 20 00 	mov    %rax,0x2048(%rsp)
    1bc5:	00 
    1bc6:	31 c0                	xor    %eax,%eax
    1bc8:	48 8d 35 b4 fe ff ff 	lea    -0x14c(%rip),%rsi        # 1a83 <sig_handler>
    1bcf:	bf 02 00 00 00       	mov    $0x2,%edi
    1bd4:	e8 e7 f6 ff ff       	callq  12c0 <signal@plt>
    1bd9:	48 89 e7             	mov    %rsp,%rdi
    1bdc:	be 40 00 00 00       	mov    $0x40,%esi
    1be1:	e8 5a f7 ff ff       	callq  1340 <gethostname@plt>
    1be6:	85 c0                	test   %eax,%eax
    1be8:	75 5a                	jne    1c44 <initialize_bomb+0xb1>
    1bea:	48 8b 3d 8f 36 00 00 	mov    0x368f(%rip),%rdi        # 5280 <host_table>
    1bf1:	48 8d 1d 90 36 00 00 	lea    0x3690(%rip),%rbx        # 5288 <host_table+0x8>
    1bf8:	48 89 e5             	mov    %rsp,%rbp
    1bfb:	48 85 ff             	test   %rdi,%rdi
    1bfe:	74 19                	je     1c19 <initialize_bomb+0x86>
    1c00:	48 89 ee             	mov    %rbp,%rsi
    1c03:	e8 08 f6 ff ff       	callq  1210 <strcasecmp@plt>
    1c08:	85 c0                	test   %eax,%eax
    1c0a:	74 0d                	je     1c19 <initialize_bomb+0x86>
    1c0c:	48 83 c3 08          	add    $0x8,%rbx
    1c10:	48 8b 7b f8          	mov    -0x8(%rbx),%rdi
    1c14:	48 85 ff             	test   %rdi,%rdi
    1c17:	75 e7                	jne    1c00 <initialize_bomb+0x6d>
    1c19:	48 8d 7c 24 40       	lea    0x40(%rsp),%rdi
    1c1e:	e8 b2 0d 00 00       	callq  29d5 <init_driver>
    1c23:	85 c0                	test   %eax,%eax
    1c25:	78 33                	js     1c5a <initialize_bomb+0xc7>
    1c27:	48 8b 84 24 48 20 00 	mov    0x2048(%rsp),%rax
    1c2e:	00 
    1c2f:	64 48 2b 04 25 28 00 	sub    %fs:0x28,%rax
    1c36:	00 00 
    1c38:	75 45                	jne    1c7f <initialize_bomb+0xec>
    1c3a:	48 81 c4 58 20 00 00 	add    $0x2058,%rsp
    1c41:	5b                   	pop    %rbx
    1c42:	5d                   	pop    %rbp
    1c43:	c3                   	retq   
    1c44:	48 8d 3d b5 15 00 00 	lea    0x15b5(%rip),%rdi        # 3200 <array.0+0x70>
    1c4b:	e8 f0 f5 ff ff       	callq  1240 <puts@plt>
    1c50:	bf 08 00 00 00       	mov    $0x8,%edi
    1c55:	e8 f6 f6 ff ff       	callq  1350 <exit@plt>
    1c5a:	48 8d 54 24 40       	lea    0x40(%rsp),%rdx
    1c5f:	48 8d 35 ec 16 00 00 	lea    0x16ec(%rip),%rsi        # 3352 <array.0+0x1c2>
    1c66:	bf 01 00 00 00       	mov    $0x1,%edi
    1c6b:	b8 00 00 00 00       	mov    $0x0,%eax
    1c70:	e8 ab f6 ff ff       	callq  1320 <__printf_chk@plt>
    1c75:	bf 08 00 00 00       	mov    $0x8,%edi
    1c7a:	e8 d1 f6 ff ff       	callq  1350 <exit@plt>
    1c7f:	e8 ec f5 ff ff       	callq  1270 <__stack_chk_fail@plt>

0000000000001c84 <initialize_bomb_solve>:
    1c84:	f3 0f 1e fa          	endbr64 
    1c88:	c3                   	retq   

0000000000001c89 <blank_line>:
    1c89:	f3 0f 1e fa          	endbr64 
    1c8d:	55                   	push   %rbp
    1c8e:	53                   	push   %rbx
    1c8f:	48 83 ec 08          	sub    $0x8,%rsp
    1c93:	48 89 fd             	mov    %rdi,%rbp
    1c96:	0f b6 5d 00          	movzbl 0x0(%rbp),%ebx
    1c9a:	84 db                	test   %bl,%bl
    1c9c:	74 1e                	je     1cbc <blank_line+0x33>
    1c9e:	e8 ed f6 ff ff       	callq  1390 <__ctype_b_loc@plt>
    1ca3:	48 83 c5 01          	add    $0x1,%rbp
    1ca7:	48 0f be db          	movsbq %bl,%rbx
    1cab:	48 8b 00             	mov    (%rax),%rax
    1cae:	f6 44 58 01 20       	testb  $0x20,0x1(%rax,%rbx,2)
    1cb3:	75 e1                	jne    1c96 <blank_line+0xd>
    1cb5:	b8 00 00 00 00       	mov    $0x0,%eax
    1cba:	eb 05                	jmp    1cc1 <blank_line+0x38>
    1cbc:	b8 01 00 00 00       	mov    $0x1,%eax
    1cc1:	48 83 c4 08          	add    $0x8,%rsp
    1cc5:	5b                   	pop    %rbx
    1cc6:	5d                   	pop    %rbp
    1cc7:	c3                   	retq   

0000000000001cc8 <skip>:
    1cc8:	f3 0f 1e fa          	endbr64 
    1ccc:	55                   	push   %rbp
    1ccd:	53                   	push   %rbx
    1cce:	48 83 ec 08          	sub    $0x8,%rsp
    1cd2:	48 8d 2d 47 3a 00 00 	lea    0x3a47(%rip),%rbp        # 5720 <input_strings>
    1cd9:	48 63 05 30 3a 00 00 	movslq 0x3a30(%rip),%rax        # 5710 <num_input_strings>
    1ce0:	48 8d 3c 80          	lea    (%rax,%rax,4),%rdi
    1ce4:	48 c1 e7 04          	shl    $0x4,%rdi
    1ce8:	48 01 ef             	add    %rbp,%rdi
    1ceb:	48 8b 15 be 39 00 00 	mov    0x39be(%rip),%rdx        # 56b0 <infile>
    1cf2:	be 50 00 00 00       	mov    $0x50,%esi
    1cf7:	e8 b4 f5 ff ff       	callq  12b0 <fgets@plt>
    1cfc:	48 89 c3             	mov    %rax,%rbx
    1cff:	48 85 c0             	test   %rax,%rax
    1d02:	74 0c                	je     1d10 <skip+0x48>
    1d04:	48 89 c7             	mov    %rax,%rdi
    1d07:	e8 7d ff ff ff       	callq  1c89 <blank_line>
    1d0c:	85 c0                	test   %eax,%eax
    1d0e:	75 c9                	jne    1cd9 <skip+0x11>
    1d10:	48 89 d8             	mov    %rbx,%rax
    1d13:	48 83 c4 08          	add    $0x8,%rsp
    1d17:	5b                   	pop    %rbx
    1d18:	5d                   	pop    %rbp
    1d19:	c3                   	retq   

0000000000001d1a <send_msg>:
    1d1a:	f3 0f 1e fa          	endbr64 
    1d1e:	53                   	push   %rbx
    1d1f:	4c 8d 9c 24 00 c0 ff 	lea    -0x4000(%rsp),%r11
    1d26:	ff 
    1d27:	48 81 ec 00 10 00 00 	sub    $0x1000,%rsp
    1d2e:	48 83 0c 24 00       	orq    $0x0,(%rsp)
    1d33:	4c 39 dc             	cmp    %r11,%rsp
    1d36:	75 ef                	jne    1d27 <send_msg+0xd>
    1d38:	48 83 ec 10          	sub    $0x10,%rsp
    1d3c:	64 48 8b 04 25 28 00 	mov    %fs:0x28,%rax
    1d43:	00 00 
    1d45:	48 89 84 24 08 40 00 	mov    %rax,0x4008(%rsp)
    1d4c:	00 
    1d4d:	31 c0                	xor    %eax,%eax
    1d4f:	8b 15 bb 39 00 00    	mov    0x39bb(%rip),%edx        # 5710 <num_input_strings>
    1d55:	8d 42 ff             	lea    -0x1(%rdx),%eax
    1d58:	48 98                	cltq   
    1d5a:	48 8d 04 80          	lea    (%rax,%rax,4),%rax
    1d5e:	48 c1 e0 04          	shl    $0x4,%rax
    1d62:	48 8d 0d b7 39 00 00 	lea    0x39b7(%rip),%rcx        # 5720 <input_strings>
    1d69:	48 01 c8             	add    %rcx,%rax
    1d6c:	85 ff                	test   %edi,%edi
    1d6e:	4c 8d 0d f7 15 00 00 	lea    0x15f7(%rip),%r9        # 336c <array.0+0x1dc>
    1d75:	48 8d 0d f8 15 00 00 	lea    0x15f8(%rip),%rcx        # 3374 <array.0+0x1e4>
    1d7c:	4c 0f 44 c9          	cmove  %rcx,%r9
    1d80:	48 89 e3             	mov    %rsp,%rbx
    1d83:	50                   	push   %rax
    1d84:	52                   	push   %rdx
    1d85:	44 8b 05 b8 33 00 00 	mov    0x33b8(%rip),%r8d        # 5144 <bomb_id>
    1d8c:	48 8d 0d ea 15 00 00 	lea    0x15ea(%rip),%rcx        # 337d <array.0+0x1ed>
    1d93:	ba 00 20 00 00       	mov    $0x2000,%edx
    1d98:	be 01 00 00 00       	mov    $0x1,%esi
    1d9d:	48 89 df             	mov    %rbx,%rdi
    1da0:	b8 00 00 00 00       	mov    $0x0,%eax
    1da5:	e8 f6 f5 ff ff       	callq  13a0 <__sprintf_chk@plt>
    1daa:	4c 8d 84 24 10 20 00 	lea    0x2010(%rsp),%r8
    1db1:	00 
    1db2:	b9 00 00 00 00       	mov    $0x0,%ecx
    1db7:	48 89 da             	mov    %rbx,%rdx
    1dba:	48 8d 35 5f 33 00 00 	lea    0x335f(%rip),%rsi        # 5120 <user_password>
    1dc1:	48 8d 3d 70 33 00 00 	lea    0x3370(%rip),%rdi        # 5138 <userid>
    1dc8:	e8 fd 0d 00 00       	callq  2bca <driver_post>
    1dcd:	48 89 dc             	mov    %rbx,%rsp
    1dd0:	85 c0                	test   %eax,%eax
    1dd2:	78 1c                	js     1df0 <send_msg+0xd6>
    1dd4:	48 8b 84 24 08 40 00 	mov    0x4008(%rsp),%rax
    1ddb:	00 
    1ddc:	64 48 2b 04 25 28 00 	sub    %fs:0x28,%rax
    1de3:	00 00 
    1de5:	75 20                	jne    1e07 <send_msg+0xed>
    1de7:	48 81 c4 10 40 00 00 	add    $0x4010,%rsp
    1dee:	5b                   	pop    %rbx
    1def:	c3                   	retq   
    1df0:	48 8d bc 24 00 20 00 	lea    0x2000(%rsp),%rdi
    1df7:	00 
    1df8:	e8 43 f4 ff ff       	callq  1240 <puts@plt>
    1dfd:	bf 00 00 00 00       	mov    $0x0,%edi
    1e02:	e8 49 f5 ff ff       	callq  1350 <exit@plt>
    1e07:	e8 64 f4 ff ff       	callq  1270 <__stack_chk_fail@plt>

0000000000001e0c <explode_bomb>:
    1e0c:	f3 0f 1e fa          	endbr64 
    1e10:	50                   	push   %rax
    1e11:	58                   	pop    %rax
    1e12:	48 83 ec 08          	sub    $0x8,%rsp
    1e16:	48 8d 3d 6c 15 00 00 	lea    0x156c(%rip),%rdi        # 3389 <array.0+0x1f9>
    1e1d:	e8 1e f4 ff ff       	callq  1240 <puts@plt>
    1e22:	48 8d 3d 69 15 00 00 	lea    0x1569(%rip),%rdi        # 3392 <array.0+0x202>
    1e29:	e8 12 f4 ff ff       	callq  1240 <puts@plt>
    1e2e:	bf 00 00 00 00       	mov    $0x0,%edi
    1e33:	e8 e2 fe ff ff       	callq  1d1a <send_msg>
    1e38:	48 8d 3d f9 13 00 00 	lea    0x13f9(%rip),%rdi        # 3238 <array.0+0xa8>
    1e3f:	e8 fc f3 ff ff       	callq  1240 <puts@plt>
    1e44:	bf 08 00 00 00       	mov    $0x8,%edi
    1e49:	e8 02 f5 ff ff       	callq  1350 <exit@plt>

0000000000001e4e <read_six_numbers>:
    1e4e:	f3 0f 1e fa          	endbr64 
    1e52:	48 83 ec 08          	sub    $0x8,%rsp
    1e56:	48 89 f2             	mov    %rsi,%rdx
    1e59:	48 8d 4e 04          	lea    0x4(%rsi),%rcx
    1e5d:	48 8d 46 14          	lea    0x14(%rsi),%rax
    1e61:	50                   	push   %rax
    1e62:	48 8d 46 10          	lea    0x10(%rsi),%rax
    1e66:	50                   	push   %rax
    1e67:	4c 8d 4e 0c          	lea    0xc(%rsi),%r9
    1e6b:	4c 8d 46 08          	lea    0x8(%rsi),%r8
    1e6f:	48 8d 35 33 15 00 00 	lea    0x1533(%rip),%rsi        # 33a9 <array.0+0x219>
    1e76:	b8 00 00 00 00       	mov    $0x0,%eax
    1e7b:	e8 90 f4 ff ff       	callq  1310 <__isoc99_sscanf@plt>
    1e80:	48 83 c4 10          	add    $0x10,%rsp
    1e84:	83 f8 05             	cmp    $0x5,%eax
    1e87:	7e 05                	jle    1e8e <read_six_numbers+0x40>
    1e89:	48 83 c4 08          	add    $0x8,%rsp
    1e8d:	c3                   	retq   
    1e8e:	e8 79 ff ff ff       	callq  1e0c <explode_bomb>

0000000000001e93 <read_line>:
    1e93:	f3 0f 1e fa          	endbr64 
    1e97:	55                   	push   %rbp
    1e98:	53                   	push   %rbx
    1e99:	48 83 ec 08          	sub    $0x8,%rsp
    1e9d:	b8 00 00 00 00       	mov    $0x0,%eax
    1ea2:	e8 21 fe ff ff       	callq  1cc8 <skip>
    1ea7:	48 85 c0             	test   %rax,%rax
    1eaa:	74 60                	je     1f0c <read_line+0x79>
    1eac:	8b 2d 5e 38 00 00    	mov    0x385e(%rip),%ebp        # 5710 <num_input_strings>
    1eb2:	48 63 c5             	movslq %ebp,%rax
    1eb5:	48 8d 1c 80          	lea    (%rax,%rax,4),%rbx
    1eb9:	48 c1 e3 04          	shl    $0x4,%rbx
    1ebd:	48 8d 05 5c 38 00 00 	lea    0x385c(%rip),%rax        # 5720 <input_strings>
    1ec4:	48 01 c3             	add    %rax,%rbx
    1ec7:	48 89 df             	mov    %rbx,%rdi
    1eca:	e8 91 f3 ff ff       	callq  1260 <strlen@plt>
    1ecf:	83 f8 4e             	cmp    $0x4e,%eax
    1ed2:	0f 8f ac 00 00 00    	jg     1f84 <read_line+0xf1>
    1ed8:	83 e8 01             	sub    $0x1,%eax
    1edb:	48 98                	cltq   
    1edd:	48 63 d5             	movslq %ebp,%rdx
    1ee0:	48 8d 14 92          	lea    (%rdx,%rdx,4),%rdx
    1ee4:	48 89 d1             	mov    %rdx,%rcx
    1ee7:	48 c1 e1 04          	shl    $0x4,%rcx
    1eeb:	48 8d 15 2e 38 00 00 	lea    0x382e(%rip),%rdx        # 5720 <input_strings>
    1ef2:	48 01 ca             	add    %rcx,%rdx
    1ef5:	c6 04 02 00          	movb   $0x0,(%rdx,%rax,1)
    1ef9:	83 c5 01             	add    $0x1,%ebp
    1efc:	89 2d 0e 38 00 00    	mov    %ebp,0x380e(%rip)        # 5710 <num_input_strings>
    1f02:	48 89 d8             	mov    %rbx,%rax
    1f05:	48 83 c4 08          	add    $0x8,%rsp
    1f09:	5b                   	pop    %rbx
    1f0a:	5d                   	pop    %rbp
    1f0b:	c3                   	retq   
    1f0c:	48 8b 05 7d 37 00 00 	mov    0x377d(%rip),%rax        # 5690 <stdin@@GLIBC_2.2.5>
    1f13:	48 39 05 96 37 00 00 	cmp    %rax,0x3796(%rip)        # 56b0 <infile>
    1f1a:	74 1b                	je     1f37 <read_line+0xa4>
    1f1c:	48 8d 3d b6 14 00 00 	lea    0x14b6(%rip),%rdi        # 33d9 <array.0+0x249>
    1f23:	e8 d8 f2 ff ff       	callq  1200 <getenv@plt>
    1f28:	48 85 c0             	test   %rax,%rax
    1f2b:	74 20                	je     1f4d <read_line+0xba>
    1f2d:	bf 00 00 00 00       	mov    $0x0,%edi
    1f32:	e8 19 f4 ff ff       	callq  1350 <exit@plt>
    1f37:	48 8d 3d 7d 14 00 00 	lea    0x147d(%rip),%rdi        # 33bb <array.0+0x22b>
    1f3e:	e8 fd f2 ff ff       	callq  1240 <puts@plt>
    1f43:	bf 08 00 00 00       	mov    $0x8,%edi
    1f48:	e8 03 f4 ff ff       	callq  1350 <exit@plt>
    1f4d:	48 8b 05 3c 37 00 00 	mov    0x373c(%rip),%rax        # 5690 <stdin@@GLIBC_2.2.5>
    1f54:	48 89 05 55 37 00 00 	mov    %rax,0x3755(%rip)        # 56b0 <infile>
    1f5b:	b8 00 00 00 00       	mov    $0x0,%eax
    1f60:	e8 63 fd ff ff       	callq  1cc8 <skip>
    1f65:	48 85 c0             	test   %rax,%rax
    1f68:	0f 85 3e ff ff ff    	jne    1eac <read_line+0x19>
    1f6e:	48 8d 3d 46 14 00 00 	lea    0x1446(%rip),%rdi        # 33bb <array.0+0x22b>
    1f75:	e8 c6 f2 ff ff       	callq  1240 <puts@plt>
    1f7a:	bf 00 00 00 00       	mov    $0x0,%edi
    1f7f:	e8 cc f3 ff ff       	callq  1350 <exit@plt>
    1f84:	48 8d 3d 59 14 00 00 	lea    0x1459(%rip),%rdi        # 33e4 <array.0+0x254>
    1f8b:	e8 b0 f2 ff ff       	callq  1240 <puts@plt>
    1f90:	8b 05 7a 37 00 00    	mov    0x377a(%rip),%eax        # 5710 <num_input_strings>
    1f96:	8d 50 01             	lea    0x1(%rax),%edx
    1f99:	89 15 71 37 00 00    	mov    %edx,0x3771(%rip)        # 5710 <num_input_strings>
    1f9f:	48 98                	cltq   
    1fa1:	48 6b c0 50          	imul   $0x50,%rax,%rax
    1fa5:	48 8d 15 74 37 00 00 	lea    0x3774(%rip),%rdx        # 5720 <input_strings>
    1fac:	48 be 2a 2a 2a 74 72 	movabs $0x636e7572742a2a2a,%rsi
    1fb3:	75 6e 63 
    1fb6:	48 bf 61 74 65 64 2a 	movabs $0x2a2a2a64657461,%rdi
    1fbd:	2a 2a 00 
    1fc0:	48 89 34 02          	mov    %rsi,(%rdx,%rax,1)
    1fc4:	48 89 7c 02 08       	mov    %rdi,0x8(%rdx,%rax,1)
    1fc9:	e8 3e fe ff ff       	callq  1e0c <explode_bomb>

0000000000001fce <phase_defused>:
    1fce:	f3 0f 1e fa          	endbr64 
    1fd2:	48 83 ec 78          	sub    $0x78,%rsp
    1fd6:	64 48 8b 04 25 28 00 	mov    %fs:0x28,%rax
    1fdd:	00 00 
    1fdf:	48 89 44 24 68       	mov    %rax,0x68(%rsp)
    1fe4:	31 c0                	xor    %eax,%eax
    1fe6:	bf 01 00 00 00       	mov    $0x1,%edi
    1feb:	e8 2a fd ff ff       	callq  1d1a <send_msg>
    1ff0:	83 3d 19 37 00 00 06 	cmpl   $0x6,0x3719(%rip)        # 5710 <num_input_strings>
    1ff7:	74 19                	je     2012 <phase_defused+0x44>
    1ff9:	48 8b 44 24 68       	mov    0x68(%rsp),%rax
    1ffe:	64 48 2b 04 25 28 00 	sub    %fs:0x28,%rax
    2005:	00 00 
    2007:	0f 85 84 00 00 00    	jne    2091 <phase_defused+0xc3>
    200d:	48 83 c4 78          	add    $0x78,%rsp
    2011:	c3                   	retq   
    2012:	48 8d 4c 24 0c       	lea    0xc(%rsp),%rcx
    2017:	48 8d 54 24 08       	lea    0x8(%rsp),%rdx
    201c:	4c 8d 44 24 10       	lea    0x10(%rsp),%r8
    2021:	48 8d 35 d7 13 00 00 	lea    0x13d7(%rip),%rsi        # 33ff <array.0+0x26f>
    2028:	48 8d 3d e1 37 00 00 	lea    0x37e1(%rip),%rdi        # 5810 <input_strings+0xf0>
    202f:	b8 00 00 00 00       	mov    $0x0,%eax
    2034:	e8 d7 f2 ff ff       	callq  1310 <__isoc99_sscanf@plt>
    2039:	83 f8 03             	cmp    $0x3,%eax
    203c:	74 1a                	je     2058 <phase_defused+0x8a>
    203e:	48 8d 3d 7b 12 00 00 	lea    0x127b(%rip),%rdi        # 32c0 <array.0+0x130>
    2045:	e8 f6 f1 ff ff       	callq  1240 <puts@plt>
    204a:	48 8d 3d 9f 12 00 00 	lea    0x129f(%rip),%rdi        # 32f0 <array.0+0x160>
    2051:	e8 ea f1 ff ff       	callq  1240 <puts@plt>
    2056:	eb a1                	jmp    1ff9 <phase_defused+0x2b>
    2058:	48 8d 7c 24 10       	lea    0x10(%rsp),%rdi
    205d:	48 8d 35 a4 13 00 00 	lea    0x13a4(%rip),%rsi        # 3408 <array.0+0x278>
    2064:	e8 ca fa ff ff       	callq  1b33 <strings_not_equal>
    2069:	85 c0                	test   %eax,%eax
    206b:	75 d1                	jne    203e <phase_defused+0x70>
    206d:	48 8d 3d ec 11 00 00 	lea    0x11ec(%rip),%rdi        # 3260 <array.0+0xd0>
    2074:	e8 c7 f1 ff ff       	callq  1240 <puts@plt>
    2079:	48 8d 3d 08 12 00 00 	lea    0x1208(%rip),%rdi        # 3288 <array.0+0xf8>
    2080:	e8 bb f1 ff ff       	callq  1240 <puts@plt>
    2085:	b8 00 00 00 00       	mov    $0x0,%eax
    208a:	e8 97 f9 ff ff       	callq  1a26 <secret_phase>
    208f:	eb ad                	jmp    203e <phase_defused+0x70>
    2091:	e8 da f1 ff ff       	callq  1270 <__stack_chk_fail@plt>

0000000000002096 <sigalrm_handler>:
    2096:	f3 0f 1e fa          	endbr64 
    209a:	50                   	push   %rax
    209b:	58                   	pop    %rax
    209c:	48 83 ec 08          	sub    $0x8,%rsp
    20a0:	b9 00 00 00 00       	mov    $0x0,%ecx
    20a5:	48 8d 15 74 13 00 00 	lea    0x1374(%rip),%rdx        # 3420 <array.0+0x290>
    20ac:	be 01 00 00 00       	mov    $0x1,%esi
    20b1:	48 8b 3d e8 35 00 00 	mov    0x35e8(%rip),%rdi        # 56a0 <stderr@@GLIBC_2.2.5>
    20b8:	b8 00 00 00 00       	mov    $0x0,%eax
    20bd:	e8 ae f2 ff ff       	callq  1370 <__fprintf_chk@plt>
    20c2:	bf 01 00 00 00       	mov    $0x1,%edi
    20c7:	e8 84 f2 ff ff       	callq  1350 <exit@plt>

00000000000020cc <rio_readlineb>:
    20cc:	41 56                	push   %r14
    20ce:	41 55                	push   %r13
    20d0:	41 54                	push   %r12
    20d2:	55                   	push   %rbp
    20d3:	53                   	push   %rbx
    20d4:	49 89 f4             	mov    %rsi,%r12
    20d7:	48 83 fa 01          	cmp    $0x1,%rdx
    20db:	0f 86 92 00 00 00    	jbe    2173 <rio_readlineb+0xa7>
    20e1:	48 89 fb             	mov    %rdi,%rbx
    20e4:	4c 8d 74 16 ff       	lea    -0x1(%rsi,%rdx,1),%r14
    20e9:	41 bd 01 00 00 00    	mov    $0x1,%r13d
    20ef:	48 8d 6f 10          	lea    0x10(%rdi),%rbp
    20f3:	eb 56                	jmp    214b <rio_readlineb+0x7f>
    20f5:	e8 26 f1 ff ff       	callq  1220 <__errno_location@plt>
    20fa:	83 38 04             	cmpl   $0x4,(%rax)
    20fd:	75 55                	jne    2154 <rio_readlineb+0x88>
    20ff:	ba 00 20 00 00       	mov    $0x2000,%edx
    2104:	48 89 ee             	mov    %rbp,%rsi
    2107:	8b 3b                	mov    (%rbx),%edi
    2109:	e8 92 f1 ff ff       	callq  12a0 <read@plt>
    210e:	89 c2                	mov    %eax,%edx
    2110:	89 43 04             	mov    %eax,0x4(%rbx)
    2113:	85 c0                	test   %eax,%eax
    2115:	78 de                	js     20f5 <rio_readlineb+0x29>
    2117:	85 c0                	test   %eax,%eax
    2119:	74 42                	je     215d <rio_readlineb+0x91>
    211b:	48 89 6b 08          	mov    %rbp,0x8(%rbx)
    211f:	48 8b 43 08          	mov    0x8(%rbx),%rax
    2123:	0f b6 08             	movzbl (%rax),%ecx
    2126:	48 83 c0 01          	add    $0x1,%rax
    212a:	48 89 43 08          	mov    %rax,0x8(%rbx)
    212e:	83 ea 01             	sub    $0x1,%edx
    2131:	89 53 04             	mov    %edx,0x4(%rbx)
    2134:	49 83 c4 01          	add    $0x1,%r12
    2138:	41 88 4c 24 ff       	mov    %cl,-0x1(%r12)
    213d:	80 f9 0a             	cmp    $0xa,%cl
    2140:	74 3c                	je     217e <rio_readlineb+0xb2>
    2142:	41 83 c5 01          	add    $0x1,%r13d
    2146:	4d 39 f4             	cmp    %r14,%r12
    2149:	74 30                	je     217b <rio_readlineb+0xaf>
    214b:	8b 53 04             	mov    0x4(%rbx),%edx
    214e:	85 d2                	test   %edx,%edx
    2150:	7e ad                	jle    20ff <rio_readlineb+0x33>
    2152:	eb cb                	jmp    211f <rio_readlineb+0x53>
    2154:	48 c7 c0 ff ff ff ff 	mov    $0xffffffffffffffff,%rax
    215b:	eb 05                	jmp    2162 <rio_readlineb+0x96>
    215d:	b8 00 00 00 00       	mov    $0x0,%eax
    2162:	85 c0                	test   %eax,%eax
    2164:	75 29                	jne    218f <rio_readlineb+0xc3>
    2166:	b8 00 00 00 00       	mov    $0x0,%eax
    216b:	41 83 fd 01          	cmp    $0x1,%r13d
    216f:	75 0d                	jne    217e <rio_readlineb+0xb2>
    2171:	eb 13                	jmp    2186 <rio_readlineb+0xba>
    2173:	41 bd 01 00 00 00    	mov    $0x1,%r13d
    2179:	eb 03                	jmp    217e <rio_readlineb+0xb2>
    217b:	4d 89 f4             	mov    %r14,%r12
    217e:	41 c6 04 24 00       	movb   $0x0,(%r12)
    2183:	49 63 c5             	movslq %r13d,%rax
    2186:	5b                   	pop    %rbx
    2187:	5d                   	pop    %rbp
    2188:	41 5c                	pop    %r12
    218a:	41 5d                	pop    %r13
    218c:	41 5e                	pop    %r14
    218e:	c3                   	retq   
    218f:	48 c7 c0 ff ff ff ff 	mov    $0xffffffffffffffff,%rax
    2196:	eb ee                	jmp    2186 <rio_readlineb+0xba>

0000000000002198 <submitr>:
    2198:	f3 0f 1e fa          	endbr64 
    219c:	41 57                	push   %r15
    219e:	41 56                	push   %r14
    21a0:	41 55                	push   %r13
    21a2:	41 54                	push   %r12
    21a4:	55                   	push   %rbp
    21a5:	53                   	push   %rbx
    21a6:	4c 8d 9c 24 00 60 ff 	lea    -0xa000(%rsp),%r11
    21ad:	ff 
    21ae:	48 81 ec 00 10 00 00 	sub    $0x1000,%rsp
    21b5:	48 83 0c 24 00       	orq    $0x0,(%rsp)
    21ba:	4c 39 dc             	cmp    %r11,%rsp
    21bd:	75 ef                	jne    21ae <submitr+0x16>
    21bf:	48 83 ec 68          	sub    $0x68,%rsp
    21c3:	49 89 fd             	mov    %rdi,%r13
    21c6:	89 f5                	mov    %esi,%ebp
    21c8:	48 89 14 24          	mov    %rdx,(%rsp)
    21cc:	48 89 4c 24 08       	mov    %rcx,0x8(%rsp)
    21d1:	4c 89 44 24 18       	mov    %r8,0x18(%rsp)
    21d6:	4c 89 4c 24 10       	mov    %r9,0x10(%rsp)
    21db:	48 8b 9c 24 a0 a0 00 	mov    0xa0a0(%rsp),%rbx
    21e2:	00 
    21e3:	4c 8b bc 24 a8 a0 00 	mov    0xa0a8(%rsp),%r15
    21ea:	00 
    21eb:	64 48 8b 04 25 28 00 	mov    %fs:0x28,%rax
    21f2:	00 00 
    21f4:	48 89 84 24 58 a0 00 	mov    %rax,0xa058(%rsp)
    21fb:	00 
    21fc:	31 c0                	xor    %eax,%eax
    21fe:	c7 44 24 2c 00 00 00 	movl   $0x0,0x2c(%rsp)
    2205:	00 
    2206:	ba 00 00 00 00       	mov    $0x0,%edx
    220b:	be 01 00 00 00       	mov    $0x1,%esi
    2210:	bf 02 00 00 00       	mov    $0x2,%edi
    2215:	e8 96 f1 ff ff       	callq  13b0 <socket@plt>
    221a:	85 c0                	test   %eax,%eax
    221c:	0f 88 04 01 00 00    	js     2326 <submitr+0x18e>
    2222:	41 89 c4             	mov    %eax,%r12d
    2225:	4c 89 ef             	mov    %r13,%rdi
    2228:	e8 a3 f0 ff ff       	callq  12d0 <gethostbyname@plt>
    222d:	48 85 c0             	test   %rax,%rax
    2230:	0f 84 40 01 00 00    	je     2376 <submitr+0x1de>
    2236:	4c 8d 6c 24 30       	lea    0x30(%rsp),%r13
    223b:	48 c7 44 24 30 00 00 	movq   $0x0,0x30(%rsp)
    2242:	00 00 
    2244:	48 c7 44 24 38 00 00 	movq   $0x0,0x38(%rsp)
    224b:	00 00 
    224d:	66 c7 44 24 30 02 00 	movw   $0x2,0x30(%rsp)
    2254:	48 63 50 14          	movslq 0x14(%rax),%rdx
    2258:	48 8b 40 18          	mov    0x18(%rax),%rax
    225c:	48 8d 7c 24 34       	lea    0x34(%rsp),%rdi
    2261:	b9 0c 00 00 00       	mov    $0xc,%ecx
    2266:	48 8b 30             	mov    (%rax),%rsi
    2269:	e8 72 f0 ff ff       	callq  12e0 <__memmove_chk@plt>
    226e:	66 c1 c5 08          	rol    $0x8,%bp
    2272:	66 89 6c 24 32       	mov    %bp,0x32(%rsp)
    2277:	ba 10 00 00 00       	mov    $0x10,%edx
    227c:	4c 89 ee             	mov    %r13,%rsi
    227f:	44 89 e7             	mov    %r12d,%edi
    2282:	e8 d9 f0 ff ff       	callq  1360 <connect@plt>
    2287:	85 c0                	test   %eax,%eax
    2289:	0f 88 52 01 00 00    	js     23e1 <submitr+0x249>
    228f:	48 89 df             	mov    %rbx,%rdi
    2292:	e8 c9 ef ff ff       	callq  1260 <strlen@plt>
    2297:	48 89 c5             	mov    %rax,%rbp
    229a:	48 8b 3c 24          	mov    (%rsp),%rdi
    229e:	e8 bd ef ff ff       	callq  1260 <strlen@plt>
    22a3:	49 89 c6             	mov    %rax,%r14
    22a6:	48 8b 7c 24 08       	mov    0x8(%rsp),%rdi
    22ab:	e8 b0 ef ff ff       	callq  1260 <strlen@plt>
    22b0:	49 89 c5             	mov    %rax,%r13
    22b3:	48 8b 7c 24 10       	mov    0x10(%rsp),%rdi
    22b8:	e8 a3 ef ff ff       	callq  1260 <strlen@plt>
    22bd:	48 89 c2             	mov    %rax,%rdx
    22c0:	4b 8d 84 2e 80 00 00 	lea    0x80(%r14,%r13,1),%rax
    22c7:	00 
    22c8:	48 01 d0             	add    %rdx,%rax
    22cb:	48 8d 54 6d 00       	lea    0x0(%rbp,%rbp,2),%rdx
    22d0:	48 01 d0             	add    %rdx,%rax
    22d3:	48 3d 00 20 00 00    	cmp    $0x2000,%rax
    22d9:	0f 87 5f 01 00 00    	ja     243e <submitr+0x2a6>
    22df:	48 8d 94 24 50 40 00 	lea    0x4050(%rsp),%rdx
    22e6:	00 
    22e7:	b9 00 04 00 00       	mov    $0x400,%ecx
    22ec:	b8 00 00 00 00       	mov    $0x0,%eax
    22f1:	48 89 d7             	mov    %rdx,%rdi
    22f4:	f3 48 ab             	rep stos %rax,%es:(%rdi)
    22f7:	48 89 df             	mov    %rbx,%rdi
    22fa:	e8 61 ef ff ff       	callq  1260 <strlen@plt>
    22ff:	85 c0                	test   %eax,%eax
    2301:	0f 84 0d 05 00 00    	je     2814 <submitr+0x67c>
    2307:	8d 40 ff             	lea    -0x1(%rax),%eax
    230a:	4c 8d 6c 03 01       	lea    0x1(%rbx,%rax,1),%r13
    230f:	48 8d ac 24 50 40 00 	lea    0x4050(%rsp),%rbp
    2316:	00 
    2317:	49 be d9 ff 00 00 00 	movabs $0x2000000000ffd9,%r14
    231e:	00 20 00 
    2321:	e9 a6 01 00 00       	jmpq   24cc <submitr+0x334>
    2326:	48 b8 45 72 72 6f 72 	movabs $0x43203a726f727245,%rax
    232d:	3a 20 43 
    2330:	48 ba 6c 69 65 6e 74 	movabs $0x6e7520746e65696c,%rdx
    2337:	20 75 6e 
    233a:	49 89 07             	mov    %rax,(%r15)
    233d:	49 89 57 08          	mov    %rdx,0x8(%r15)
    2341:	48 b8 61 62 6c 65 20 	movabs $0x206f7420656c6261,%rax
    2348:	74 6f 20 
    234b:	48 ba 63 72 65 61 74 	movabs $0x7320657461657263,%rdx
    2352:	65 20 73 
    2355:	49 89 47 10          	mov    %rax,0x10(%r15)
    2359:	49 89 57 18          	mov    %rdx,0x18(%r15)
    235d:	41 c7 47 20 6f 63 6b 	movl   $0x656b636f,0x20(%r15)
    2364:	65 
    2365:	66 41 c7 47 24 74 00 	movw   $0x74,0x24(%r15)
    236c:	b8 ff ff ff ff       	mov    $0xffffffff,%eax
    2371:	e9 16 03 00 00       	jmpq   268c <submitr+0x4f4>
    2376:	48 b8 45 72 72 6f 72 	movabs $0x44203a726f727245,%rax
    237d:	3a 20 44 
    2380:	48 ba 4e 53 20 69 73 	movabs $0x6e7520736920534e,%rdx
    2387:	20 75 6e 
    238a:	49 89 07             	mov    %rax,(%r15)
    238d:	49 89 57 08          	mov    %rdx,0x8(%r15)
    2391:	48 b8 61 62 6c 65 20 	movabs $0x206f7420656c6261,%rax
    2398:	74 6f 20 
    239b:	48 ba 72 65 73 6f 6c 	movabs $0x2065766c6f736572,%rdx
    23a2:	76 65 20 
    23a5:	49 89 47 10          	mov    %rax,0x10(%r15)
    23a9:	49 89 57 18          	mov    %rdx,0x18(%r15)
    23ad:	48 b8 73 65 72 76 65 	movabs $0x6120726576726573,%rax
    23b4:	72 20 61 
    23b7:	49 89 47 20          	mov    %rax,0x20(%r15)
    23bb:	41 c7 47 28 64 64 72 	movl   $0x65726464,0x28(%r15)
    23c2:	65 
    23c3:	66 41 c7 47 2c 73 73 	movw   $0x7373,0x2c(%r15)
    23ca:	41 c6 47 2e 00       	movb   $0x0,0x2e(%r15)
    23cf:	44 89 e7             	mov    %r12d,%edi
    23d2:	e8 b9 ee ff ff       	callq  1290 <close@plt>
    23d7:	b8 ff ff ff ff       	mov    $0xffffffff,%eax
    23dc:	e9 ab 02 00 00       	jmpq   268c <submitr+0x4f4>
    23e1:	48 b8 45 72 72 6f 72 	movabs $0x55203a726f727245,%rax
    23e8:	3a 20 55 
    23eb:	48 ba 6e 61 62 6c 65 	movabs $0x6f7420656c62616e,%rdx
    23f2:	20 74 6f 
    23f5:	49 89 07             	mov    %rax,(%r15)
    23f8:	49 89 57 08          	mov    %rdx,0x8(%r15)
    23fc:	48 b8 20 63 6f 6e 6e 	movabs $0x7463656e6e6f6320,%rax
    2403:	65 63 74 
    2406:	48 ba 20 74 6f 20 74 	movabs $0x20656874206f7420,%rdx
    240d:	68 65 20 
    2410:	49 89 47 10          	mov    %rax,0x10(%r15)
    2414:	49 89 57 18          	mov    %rdx,0x18(%r15)
    2418:	41 c7 47 20 73 65 72 	movl   $0x76726573,0x20(%r15)
    241f:	76 
    2420:	66 41 c7 47 24 65 72 	movw   $0x7265,0x24(%r15)
    2427:	41 c6 47 26 00       	movb   $0x0,0x26(%r15)
    242c:	44 89 e7             	mov    %r12d,%edi
    242f:	e8 5c ee ff ff       	callq  1290 <close@plt>
    2434:	b8 ff ff ff ff       	mov    $0xffffffff,%eax
    2439:	e9 4e 02 00 00       	jmpq   268c <submitr+0x4f4>
    243e:	48 b8 45 72 72 6f 72 	movabs $0x52203a726f727245,%rax
    2445:	3a 20 52 
    2448:	48 ba 65 73 75 6c 74 	movabs $0x747320746c757365,%rdx
    244f:	20 73 74 
    2452:	49 89 07             	mov    %rax,(%r15)
    2455:	49 89 57 08          	mov    %rdx,0x8(%r15)
    2459:	48 b8 72 69 6e 67 20 	movabs $0x6f6f7420676e6972,%rax
    2460:	74 6f 6f 
    2463:	48 ba 20 6c 61 72 67 	movabs $0x202e656772616c20,%rdx
    246a:	65 2e 20 
    246d:	49 89 47 10          	mov    %rax,0x10(%r15)
    2471:	49 89 57 18          	mov    %rdx,0x18(%r15)
    2475:	48 b8 49 6e 63 72 65 	movabs $0x6573616572636e49,%rax
    247c:	61 73 65 
    247f:	48 ba 20 53 55 42 4d 	movabs $0x5254494d42555320,%rdx
    2486:	49 54 52 
    2489:	49 89 47 20          	mov    %rax,0x20(%r15)
    248d:	49 89 57 28          	mov    %rdx,0x28(%r15)
    2491:	48 b8 5f 4d 41 58 42 	movabs $0x46554258414d5f,%rax
    2498:	55 46 00 
    249b:	49 89 47 30          	mov    %rax,0x30(%r15)
    249f:	44 89 e7             	mov    %r12d,%edi
    24a2:	e8 e9 ed ff ff       	callq  1290 <close@plt>
    24a7:	b8 ff ff ff ff       	mov    $0xffffffff,%eax
    24ac:	e9 db 01 00 00       	jmpq   268c <submitr+0x4f4>
    24b1:	49 0f a3 c6          	bt     %rax,%r14
    24b5:	73 21                	jae    24d8 <submitr+0x340>
    24b7:	44 88 45 00          	mov    %r8b,0x0(%rbp)
    24bb:	48 8d 6d 01          	lea    0x1(%rbp),%rbp
    24bf:	48 83 c3 01          	add    $0x1,%rbx
    24c3:	4c 39 eb             	cmp    %r13,%rbx
    24c6:	0f 84 48 03 00 00    	je     2814 <submitr+0x67c>
    24cc:	44 0f b6 03          	movzbl (%rbx),%r8d
    24d0:	41 8d 40 d6          	lea    -0x2a(%r8),%eax
    24d4:	3c 35                	cmp    $0x35,%al
    24d6:	76 d9                	jbe    24b1 <submitr+0x319>
    24d8:	44 89 c0             	mov    %r8d,%eax
    24db:	83 e0 df             	and    $0xffffffdf,%eax
    24de:	83 e8 41             	sub    $0x41,%eax
    24e1:	3c 19                	cmp    $0x19,%al
    24e3:	76 d2                	jbe    24b7 <submitr+0x31f>
    24e5:	41 80 f8 20          	cmp    $0x20,%r8b
    24e9:	74 63                	je     254e <submitr+0x3b6>
    24eb:	41 8d 40 e0          	lea    -0x20(%r8),%eax
    24ef:	3c 5f                	cmp    $0x5f,%al
    24f1:	76 0a                	jbe    24fd <submitr+0x365>
    24f3:	41 80 f8 09          	cmp    $0x9,%r8b
    24f7:	0f 85 8a 02 00 00    	jne    2787 <submitr+0x5ef>
    24fd:	48 8d bc 24 50 80 00 	lea    0x8050(%rsp),%rdi
    2504:	00 
    2505:	45 0f b6 c0          	movzbl %r8b,%r8d
    2509:	48 8d 0d e6 0f 00 00 	lea    0xfe6(%rip),%rcx        # 34f6 <array.0+0x366>
    2510:	ba 08 00 00 00       	mov    $0x8,%edx
    2515:	be 01 00 00 00       	mov    $0x1,%esi
    251a:	b8 00 00 00 00       	mov    $0x0,%eax
    251f:	e8 7c ee ff ff       	callq  13a0 <__sprintf_chk@plt>
    2524:	0f b6 84 24 50 80 00 	movzbl 0x8050(%rsp),%eax
    252b:	00 
    252c:	88 45 00             	mov    %al,0x0(%rbp)
    252f:	0f b6 84 24 51 80 00 	movzbl 0x8051(%rsp),%eax
    2536:	00 
    2537:	88 45 01             	mov    %al,0x1(%rbp)
    253a:	0f b6 84 24 52 80 00 	movzbl 0x8052(%rsp),%eax
    2541:	00 
    2542:	88 45 02             	mov    %al,0x2(%rbp)
    2545:	48 8d 6d 03          	lea    0x3(%rbp),%rbp
    2549:	e9 71 ff ff ff       	jmpq   24bf <submitr+0x327>
    254e:	c6 45 00 2b          	movb   $0x2b,0x0(%rbp)
    2552:	48 8d 6d 01          	lea    0x1(%rbp),%rbp
    2556:	e9 64 ff ff ff       	jmpq   24bf <submitr+0x327>
    255b:	48 01 c5             	add    %rax,%rbp
    255e:	48 29 c3             	sub    %rax,%rbx
    2561:	0f 84 18 03 00 00    	je     287f <submitr+0x6e7>
    2567:	48 89 da             	mov    %rbx,%rdx
    256a:	48 89 ee             	mov    %rbp,%rsi
    256d:	44 89 e7             	mov    %r12d,%edi
    2570:	e8 db ec ff ff       	callq  1250 <write@plt>
    2575:	48 85 c0             	test   %rax,%rax
    2578:	7f e1                	jg     255b <submitr+0x3c3>
    257a:	e8 a1 ec ff ff       	callq  1220 <__errno_location@plt>
    257f:	83 38 04             	cmpl   $0x4,(%rax)
    2582:	0f 85 a0 01 00 00    	jne    2728 <submitr+0x590>
    2588:	4c 89 e8             	mov    %r13,%rax
    258b:	eb ce                	jmp    255b <submitr+0x3c3>
    258d:	48 b8 45 72 72 6f 72 	movabs $0x43203a726f727245,%rax
    2594:	3a 20 43 
    2597:	48 ba 6c 69 65 6e 74 	movabs $0x6e7520746e65696c,%rdx
    259e:	20 75 6e 
    25a1:	49 89 07             	mov    %rax,(%r15)
    25a4:	49 89 57 08          	mov    %rdx,0x8(%r15)
    25a8:	48 b8 61 62 6c 65 20 	movabs $0x206f7420656c6261,%rax
    25af:	74 6f 20 
    25b2:	48 ba 72 65 61 64 20 	movabs $0x7269662064616572,%rdx
    25b9:	66 69 72 
    25bc:	49 89 47 10          	mov    %rax,0x10(%r15)
    25c0:	49 89 57 18          	mov    %rdx,0x18(%r15)
    25c4:	48 b8 73 74 20 68 65 	movabs $0x6564616568207473,%rax
    25cb:	61 64 65 
    25ce:	48 ba 72 20 66 72 6f 	movabs $0x73206d6f72662072,%rdx
    25d5:	6d 20 73 
    25d8:	49 89 47 20          	mov    %rax,0x20(%r15)
    25dc:	49 89 57 28          	mov    %rdx,0x28(%r15)
    25e0:	41 c7 47 30 65 72 76 	movl   $0x65767265,0x30(%r15)
    25e7:	65 
    25e8:	66 41 c7 47 34 72 00 	movw   $0x72,0x34(%r15)
    25ef:	44 89 e7             	mov    %r12d,%edi
    25f2:	e8 99 ec ff ff       	callq  1290 <close@plt>
    25f7:	b8 ff ff ff ff       	mov    $0xffffffff,%eax
    25fc:	e9 8b 00 00 00       	jmpq   268c <submitr+0x4f4>
    2601:	4c 8d 8c 24 50 80 00 	lea    0x8050(%rsp),%r9
    2608:	00 
    2609:	48 8d 0d 38 0e 00 00 	lea    0xe38(%rip),%rcx        # 3448 <array.0+0x2b8>
    2610:	48 c7 c2 ff ff ff ff 	mov    $0xffffffffffffffff,%rdx
    2617:	be 01 00 00 00       	mov    $0x1,%esi
    261c:	4c 89 ff             	mov    %r15,%rdi
    261f:	b8 00 00 00 00       	mov    $0x0,%eax
    2624:	e8 77 ed ff ff       	callq  13a0 <__sprintf_chk@plt>
    2629:	44 89 e7             	mov    %r12d,%edi
    262c:	e8 5f ec ff ff       	callq  1290 <close@plt>
    2631:	b8 ff ff ff ff       	mov    $0xffffffff,%eax
    2636:	eb 54                	jmp    268c <submitr+0x4f4>
    2638:	48 8d b4 24 50 20 00 	lea    0x2050(%rsp),%rsi
    263f:	00 
    2640:	48 8d 7c 24 40       	lea    0x40(%rsp),%rdi
    2645:	ba 00 20 00 00       	mov    $0x2000,%edx
    264a:	e8 7d fa ff ff       	callq  20cc <rio_readlineb>
    264f:	48 85 c0             	test   %rax,%rax
    2652:	7e 61                	jle    26b5 <submitr+0x51d>
    2654:	48 8d b4 24 50 20 00 	lea    0x2050(%rsp),%rsi
    265b:	00 
    265c:	4c 89 ff             	mov    %r15,%rdi
    265f:	e8 cc eb ff ff       	callq  1230 <strcpy@plt>
    2664:	44 89 e7             	mov    %r12d,%edi
    2667:	e8 24 ec ff ff       	callq  1290 <close@plt>
    266c:	b9 03 00 00 00       	mov    $0x3,%ecx
    2671:	48 8d 3d 99 0e 00 00 	lea    0xe99(%rip),%rdi        # 3511 <array.0+0x381>
    2678:	4c 89 fe             	mov    %r15,%rsi
    267b:	f3 a6                	repz cmpsb %es:(%rdi),%ds:(%rsi)
    267d:	0f 97 c0             	seta   %al
    2680:	1c 00                	sbb    $0x0,%al
    2682:	84 c0                	test   %al,%al
    2684:	0f 95 c0             	setne  %al
    2687:	0f b6 c0             	movzbl %al,%eax
    268a:	f7 d8                	neg    %eax
    268c:	48 8b 8c 24 58 a0 00 	mov    0xa058(%rsp),%rcx
    2693:	00 
    2694:	64 48 2b 0c 25 28 00 	sub    %fs:0x28,%rcx
    269b:	00 00 
    269d:	0f 85 ff 02 00 00    	jne    29a2 <submitr+0x80a>
    26a3:	48 81 c4 68 a0 00 00 	add    $0xa068,%rsp
    26aa:	5b                   	pop    %rbx
    26ab:	5d                   	pop    %rbp
    26ac:	41 5c                	pop    %r12
    26ae:	41 5d                	pop    %r13
    26b0:	41 5e                	pop    %r14
    26b2:	41 5f                	pop    %r15
    26b4:	c3                   	retq   
    26b5:	48 b8 45 72 72 6f 72 	movabs $0x43203a726f727245,%rax
    26bc:	3a 20 43 
    26bf:	48 ba 6c 69 65 6e 74 	movabs $0x6e7520746e65696c,%rdx
    26c6:	20 75 6e 
    26c9:	49 89 07             	mov    %rax,(%r15)
    26cc:	49 89 57 08          	mov    %rdx,0x8(%r15)
    26d0:	48 b8 61 62 6c 65 20 	movabs $0x206f7420656c6261,%rax
    26d7:	74 6f 20 
    26da:	48 ba 72 65 61 64 20 	movabs $0x6174732064616572,%rdx
    26e1:	73 74 61 
    26e4:	49 89 47 10          	mov    %rax,0x10(%r15)
    26e8:	49 89 57 18          	mov    %rdx,0x18(%r15)
    26ec:	48 b8 74 75 73 20 6d 	movabs $0x7373656d20737574,%rax
    26f3:	65 73 73 
    26f6:	48 ba 61 67 65 20 66 	movabs $0x6d6f726620656761,%rdx
    26fd:	72 6f 6d 
    2700:	49 89 47 20          	mov    %rax,0x20(%r15)
    2704:	49 89 57 28          	mov    %rdx,0x28(%r15)
    2708:	48 b8 20 73 65 72 76 	movabs $0x72657672657320,%rax
    270f:	65 72 00 
    2712:	49 89 47 30          	mov    %rax,0x30(%r15)
    2716:	44 89 e7             	mov    %r12d,%edi
    2719:	e8 72 eb ff ff       	callq  1290 <close@plt>
    271e:	b8 ff ff ff ff       	mov    $0xffffffff,%eax
    2723:	e9 64 ff ff ff       	jmpq   268c <submitr+0x4f4>
    2728:	48 b8 45 72 72 6f 72 	movabs $0x43203a726f727245,%rax
    272f:	3a 20 43 
    2732:	48 ba 6c 69 65 6e 74 	movabs $0x6e7520746e65696c,%rdx
    2739:	20 75 6e 
    273c:	49 89 07             	mov    %rax,(%r15)
    273f:	49 89 57 08          	mov    %rdx,0x8(%r15)
    2743:	48 b8 61 62 6c 65 20 	movabs $0x206f7420656c6261,%rax
    274a:	74 6f 20 
    274d:	48 ba 77 72 69 74 65 	movabs $0x6f74206574697277,%rdx
    2754:	20 74 6f 
    2757:	49 89 47 10          	mov    %rax,0x10(%r15)
    275b:	49 89 57 18          	mov    %rdx,0x18(%r15)
    275f:	48 b8 20 74 68 65 20 	movabs $0x7265732065687420,%rax
    2766:	73 65 72 
    2769:	49 89 47 20          	mov    %rax,0x20(%r15)
    276d:	41 c7 47 28 76 65 72 	movl   $0x726576,0x28(%r15)
    2774:	00 
    2775:	44 89 e7             	mov    %r12d,%edi
    2778:	e8 13 eb ff ff       	callq  1290 <close@plt>
    277d:	b8 ff ff ff ff       	mov    $0xffffffff,%eax
    2782:	e9 05 ff ff ff       	jmpq   268c <submitr+0x4f4>
    2787:	48 b8 45 72 72 6f 72 	movabs $0x52203a726f727245,%rax
    278e:	3a 20 52 
    2791:	48 ba 65 73 75 6c 74 	movabs $0x747320746c757365,%rdx
    2798:	20 73 74 
    279b:	49 89 07             	mov    %rax,(%r15)
    279e:	49 89 57 08          	mov    %rdx,0x8(%r15)
    27a2:	48 b8 72 69 6e 67 20 	movabs $0x6e6f6320676e6972,%rax
    27a9:	63 6f 6e 
    27ac:	48 ba 74 61 69 6e 73 	movabs $0x6e6120736e696174,%rdx
    27b3:	20 61 6e 
    27b6:	49 89 47 10          	mov    %rax,0x10(%r15)
    27ba:	49 89 57 18          	mov    %rdx,0x18(%r15)
    27be:	48 b8 20 69 6c 6c 65 	movabs $0x6c6167656c6c6920,%rax
    27c5:	67 61 6c 
    27c8:	48 ba 20 6f 72 20 75 	movabs $0x72706e7520726f20,%rdx
    27cf:	6e 70 72 
    27d2:	49 89 47 20          	mov    %rax,0x20(%r15)
    27d6:	49 89 57 28          	mov    %rdx,0x28(%r15)
    27da:	48 b8 69 6e 74 61 62 	movabs $0x20656c6261746e69,%rax
    27e1:	6c 65 20 
    27e4:	48 ba 63 68 61 72 61 	movabs $0x6574636172616863,%rdx
    27eb:	63 74 65 
    27ee:	49 89 47 30          	mov    %rax,0x30(%r15)
    27f2:	49 89 57 38          	mov    %rdx,0x38(%r15)
    27f6:	66 41 c7 47 40 72 2e 	movw   $0x2e72,0x40(%r15)
    27fd:	41 c6 47 42 00       	movb   $0x0,0x42(%r15)
    2802:	44 89 e7             	mov    %r12d,%edi
    2805:	e8 86 ea ff ff       	callq  1290 <close@plt>
    280a:	b8 ff ff ff ff       	mov    $0xffffffff,%eax
    280f:	e9 78 fe ff ff       	jmpq   268c <submitr+0x4f4>
    2814:	48 8d 9c 24 50 20 00 	lea    0x2050(%rsp),%rbx
    281b:	00 
    281c:	48 83 ec 08          	sub    $0x8,%rsp
    2820:	48 8d 84 24 58 40 00 	lea    0x4058(%rsp),%rax
    2827:	00 
    2828:	50                   	push   %rax
    2829:	ff 74 24 20          	pushq  0x20(%rsp)
    282d:	ff 74 24 30          	pushq  0x30(%rsp)
    2831:	4c 8b 4c 24 28       	mov    0x28(%rsp),%r9
    2836:	4c 8b 44 24 20       	mov    0x20(%rsp),%r8
    283b:	48 8d 0d 36 0c 00 00 	lea    0xc36(%rip),%rcx        # 3478 <array.0+0x2e8>
    2842:	ba 00 20 00 00       	mov    $0x2000,%edx
    2847:	be 01 00 00 00       	mov    $0x1,%esi
    284c:	48 89 df             	mov    %rbx,%rdi
    284f:	b8 00 00 00 00       	mov    $0x0,%eax
    2854:	e8 47 eb ff ff       	callq  13a0 <__sprintf_chk@plt>
    2859:	48 83 c4 20          	add    $0x20,%rsp
    285d:	48 89 df             	mov    %rbx,%rdi
    2860:	e8 fb e9 ff ff       	callq  1260 <strlen@plt>
    2865:	48 89 c3             	mov    %rax,%rbx
    2868:	48 8d ac 24 50 20 00 	lea    0x2050(%rsp),%rbp
    286f:	00 
    2870:	41 bd 00 00 00 00    	mov    $0x0,%r13d
    2876:	48 85 c0             	test   %rax,%rax
    2879:	0f 85 e8 fc ff ff    	jne    2567 <submitr+0x3cf>
    287f:	44 89 64 24 40       	mov    %r12d,0x40(%rsp)
    2884:	c7 44 24 44 00 00 00 	movl   $0x0,0x44(%rsp)
    288b:	00 
    288c:	48 8d 7c 24 40       	lea    0x40(%rsp),%rdi
    2891:	48 8d 44 24 50       	lea    0x50(%rsp),%rax
    2896:	48 89 44 24 48       	mov    %rax,0x48(%rsp)
    289b:	48 8d b4 24 50 20 00 	lea    0x2050(%rsp),%rsi
    28a2:	00 
    28a3:	ba 00 20 00 00       	mov    $0x2000,%edx
    28a8:	e8 1f f8 ff ff       	callq  20cc <rio_readlineb>
    28ad:	48 85 c0             	test   %rax,%rax
    28b0:	0f 8e d7 fc ff ff    	jle    258d <submitr+0x3f5>
    28b6:	48 8d 4c 24 2c       	lea    0x2c(%rsp),%rcx
    28bb:	48 8d 94 24 50 60 00 	lea    0x6050(%rsp),%rdx
    28c2:	00 
    28c3:	48 8d bc 24 50 20 00 	lea    0x2050(%rsp),%rdi
    28ca:	00 
    28cb:	4c 8d 84 24 50 80 00 	lea    0x8050(%rsp),%r8
    28d2:	00 
    28d3:	48 8d 35 23 0c 00 00 	lea    0xc23(%rip),%rsi        # 34fd <array.0+0x36d>
    28da:	b8 00 00 00 00       	mov    $0x0,%eax
    28df:	e8 2c ea ff ff       	callq  1310 <__isoc99_sscanf@plt>
    28e4:	44 8b 44 24 2c       	mov    0x2c(%rsp),%r8d
    28e9:	41 81 f8 c8 00 00 00 	cmp    $0xc8,%r8d
    28f0:	0f 85 0b fd ff ff    	jne    2601 <submitr+0x469>
    28f6:	48 8d 1d 11 0c 00 00 	lea    0xc11(%rip),%rbx        # 350e <array.0+0x37e>
    28fd:	48 8d b4 24 50 20 00 	lea    0x2050(%rsp),%rsi
    2904:	00 
    2905:	b9 03 00 00 00       	mov    $0x3,%ecx
    290a:	48 89 df             	mov    %rbx,%rdi
    290d:	f3 a6                	repz cmpsb %es:(%rdi),%ds:(%rsi)
    290f:	0f 97 c0             	seta   %al
    2912:	1c 00                	sbb    $0x0,%al
    2914:	84 c0                	test   %al,%al
    2916:	0f 84 1c fd ff ff    	je     2638 <submitr+0x4a0>
    291c:	48 8d b4 24 50 20 00 	lea    0x2050(%rsp),%rsi
    2923:	00 
    2924:	48 8d 7c 24 40       	lea    0x40(%rsp),%rdi
    2929:	ba 00 20 00 00       	mov    $0x2000,%edx
    292e:	e8 99 f7 ff ff       	callq  20cc <rio_readlineb>
    2933:	48 85 c0             	test   %rax,%rax
    2936:	7f c5                	jg     28fd <submitr+0x765>
    2938:	48 b8 45 72 72 6f 72 	movabs $0x43203a726f727245,%rax
    293f:	3a 20 43 
    2942:	48 ba 6c 69 65 6e 74 	movabs $0x6e7520746e65696c,%rdx
    2949:	20 75 6e 
    294c:	49 89 07             	mov    %rax,(%r15)
    294f:	49 89 57 08          	mov    %rdx,0x8(%r15)
    2953:	48 b8 61 62 6c 65 20 	movabs $0x206f7420656c6261,%rax
    295a:	74 6f 20 
    295d:	48 ba 72 65 61 64 20 	movabs $0x6165682064616572,%rdx
    2964:	68 65 61 
    2967:	49 89 47 10          	mov    %rax,0x10(%r15)
    296b:	49 89 57 18          	mov    %rdx,0x18(%r15)
    296f:	48 b8 64 65 72 73 20 	movabs $0x6f72662073726564,%rax
    2976:	66 72 6f 
    2979:	48 ba 6d 20 73 65 72 	movabs $0x726576726573206d,%rdx
    2980:	76 65 72 
    2983:	49 89 47 20          	mov    %rax,0x20(%r15)
    2987:	49 89 57 28          	mov    %rdx,0x28(%r15)
    298b:	41 c6 47 30 00       	movb   $0x0,0x30(%r15)
    2990:	44 89 e7             	mov    %r12d,%edi
    2993:	e8 f8 e8 ff ff       	callq  1290 <close@plt>
    2998:	b8 ff ff ff ff       	mov    $0xffffffff,%eax
    299d:	e9 ea fc ff ff       	jmpq   268c <submitr+0x4f4>
    29a2:	e8 c9 e8 ff ff       	callq  1270 <__stack_chk_fail@plt>

00000000000029a7 <init_timeout>:
    29a7:	f3 0f 1e fa          	endbr64 
    29ab:	85 ff                	test   %edi,%edi
    29ad:	75 01                	jne    29b0 <init_timeout+0x9>
    29af:	c3                   	retq   
    29b0:	53                   	push   %rbx
    29b1:	89 fb                	mov    %edi,%ebx
    29b3:	48 8d 35 dc f6 ff ff 	lea    -0x924(%rip),%rsi        # 2096 <sigalrm_handler>
    29ba:	bf 0e 00 00 00       	mov    $0xe,%edi
    29bf:	e8 fc e8 ff ff       	callq  12c0 <signal@plt>
    29c4:	85 db                	test   %ebx,%ebx
    29c6:	bf 00 00 00 00       	mov    $0x0,%edi
    29cb:	0f 49 fb             	cmovns %ebx,%edi
    29ce:	e8 ad e8 ff ff       	callq  1280 <alarm@plt>
    29d3:	5b                   	pop    %rbx
    29d4:	c3                   	retq   

00000000000029d5 <init_driver>:
    29d5:	f3 0f 1e fa          	endbr64 
    29d9:	41 54                	push   %r12
    29db:	55                   	push   %rbp
    29dc:	53                   	push   %rbx
    29dd:	48 83 ec 20          	sub    $0x20,%rsp
    29e1:	48 89 fd             	mov    %rdi,%rbp
    29e4:	64 48 8b 04 25 28 00 	mov    %fs:0x28,%rax
    29eb:	00 00 
    29ed:	48 89 44 24 18       	mov    %rax,0x18(%rsp)
    29f2:	31 c0                	xor    %eax,%eax
    29f4:	be 01 00 00 00       	mov    $0x1,%esi
    29f9:	bf 0d 00 00 00       	mov    $0xd,%edi
    29fe:	e8 bd e8 ff ff       	callq  12c0 <signal@plt>
    2a03:	be 01 00 00 00       	mov    $0x1,%esi
    2a08:	bf 1d 00 00 00       	mov    $0x1d,%edi
    2a0d:	e8 ae e8 ff ff       	callq  12c0 <signal@plt>
    2a12:	be 01 00 00 00       	mov    $0x1,%esi
    2a17:	bf 1d 00 00 00       	mov    $0x1d,%edi
    2a1c:	e8 9f e8 ff ff       	callq  12c0 <signal@plt>
    2a21:	ba 00 00 00 00       	mov    $0x0,%edx
    2a26:	be 01 00 00 00       	mov    $0x1,%esi
    2a2b:	bf 02 00 00 00       	mov    $0x2,%edi
    2a30:	e8 7b e9 ff ff       	callq  13b0 <socket@plt>
    2a35:	85 c0                	test   %eax,%eax
    2a37:	0f 88 9c 00 00 00    	js     2ad9 <init_driver+0x104>
    2a3d:	89 c3                	mov    %eax,%ebx
    2a3f:	48 8d 3d c9 09 00 00 	lea    0x9c9(%rip),%rdi        # 340f <array.0+0x27f>
    2a46:	e8 85 e8 ff ff       	callq  12d0 <gethostbyname@plt>
    2a4b:	48 85 c0             	test   %rax,%rax
    2a4e:	0f 84 d1 00 00 00    	je     2b25 <init_driver+0x150>
    2a54:	49 89 e4             	mov    %rsp,%r12
    2a57:	48 c7 04 24 00 00 00 	movq   $0x0,(%rsp)
    2a5e:	00 
    2a5f:	48 c7 44 24 08 00 00 	movq   $0x0,0x8(%rsp)
    2a66:	00 00 
    2a68:	66 c7 04 24 02 00    	movw   $0x2,(%rsp)
    2a6e:	48 63 50 14          	movslq 0x14(%rax),%rdx
    2a72:	48 8b 40 18          	mov    0x18(%rax),%rax
    2a76:	48 8d 7c 24 04       	lea    0x4(%rsp),%rdi
    2a7b:	b9 0c 00 00 00       	mov    $0xc,%ecx
    2a80:	48 8b 30             	mov    (%rax),%rsi
    2a83:	e8 58 e8 ff ff       	callq  12e0 <__memmove_chk@plt>
    2a88:	66 c7 44 24 02 3b 6e 	movw   $0x6e3b,0x2(%rsp)
    2a8f:	ba 10 00 00 00       	mov    $0x10,%edx
    2a94:	4c 89 e6             	mov    %r12,%rsi
    2a97:	89 df                	mov    %ebx,%edi
    2a99:	e8 c2 e8 ff ff       	callq  1360 <connect@plt>
    2a9e:	85 c0                	test   %eax,%eax
    2aa0:	0f 88 e7 00 00 00    	js     2b8d <init_driver+0x1b8>
    2aa6:	89 df                	mov    %ebx,%edi
    2aa8:	e8 e3 e7 ff ff       	callq  1290 <close@plt>
    2aad:	66 c7 45 00 4f 4b    	movw   $0x4b4f,0x0(%rbp)
    2ab3:	c6 45 02 00          	movb   $0x0,0x2(%rbp)
    2ab7:	b8 00 00 00 00       	mov    $0x0,%eax
    2abc:	48 8b 4c 24 18       	mov    0x18(%rsp),%rcx
    2ac1:	64 48 2b 0c 25 28 00 	sub    %fs:0x28,%rcx
    2ac8:	00 00 
    2aca:	0f 85 f5 00 00 00    	jne    2bc5 <init_driver+0x1f0>
    2ad0:	48 83 c4 20          	add    $0x20,%rsp
    2ad4:	5b                   	pop    %rbx
    2ad5:	5d                   	pop    %rbp
    2ad6:	41 5c                	pop    %r12
    2ad8:	c3                   	retq   
    2ad9:	48 b8 45 72 72 6f 72 	movabs $0x43203a726f727245,%rax
    2ae0:	3a 20 43 
    2ae3:	48 ba 6c 69 65 6e 74 	movabs $0x6e7520746e65696c,%rdx
    2aea:	20 75 6e 
    2aed:	48 89 45 00          	mov    %rax,0x0(%rbp)
    2af1:	48 89 55 08          	mov    %rdx,0x8(%rbp)
    2af5:	48 b8 61 62 6c 65 20 	movabs $0x206f7420656c6261,%rax
    2afc:	74 6f 20 
    2aff:	48 ba 63 72 65 61 74 	movabs $0x7320657461657263,%rdx
    2b06:	65 20 73 
    2b09:	48 89 45 10          	mov    %rax,0x10(%rbp)
    2b0d:	48 89 55 18          	mov    %rdx,0x18(%rbp)
    2b11:	c7 45 20 6f 63 6b 65 	movl   $0x656b636f,0x20(%rbp)
    2b18:	66 c7 45 24 74 00    	movw   $0x74,0x24(%rbp)
    2b1e:	b8 ff ff ff ff       	mov    $0xffffffff,%eax
    2b23:	eb 97                	jmp    2abc <init_driver+0xe7>
    2b25:	48 b8 45 72 72 6f 72 	movabs $0x44203a726f727245,%rax
    2b2c:	3a 20 44 
    2b2f:	48 ba 4e 53 20 69 73 	movabs $0x6e7520736920534e,%rdx
    2b36:	20 75 6e 
    2b39:	48 89 45 00          	mov    %rax,0x0(%rbp)
    2b3d:	48 89 55 08          	mov    %rdx,0x8(%rbp)
    2b41:	48 b8 61 62 6c 65 20 	movabs $0x206f7420656c6261,%rax
    2b48:	74 6f 20 
    2b4b:	48 ba 72 65 73 6f 6c 	movabs $0x2065766c6f736572,%rdx
    2b52:	76 65 20 
    2b55:	48 89 45 10          	mov    %rax,0x10(%rbp)
    2b59:	48 89 55 18          	mov    %rdx,0x18(%rbp)
    2b5d:	48 b8 73 65 72 76 65 	movabs $0x6120726576726573,%rax
    2b64:	72 20 61 
    2b67:	48 89 45 20          	mov    %rax,0x20(%rbp)
    2b6b:	c7 45 28 64 64 72 65 	movl   $0x65726464,0x28(%rbp)
    2b72:	66 c7 45 2c 73 73    	movw   $0x7373,0x2c(%rbp)
    2b78:	c6 45 2e 00          	movb   $0x0,0x2e(%rbp)
    2b7c:	89 df                	mov    %ebx,%edi
    2b7e:	e8 0d e7 ff ff       	callq  1290 <close@plt>
    2b83:	b8 ff ff ff ff       	mov    $0xffffffff,%eax
    2b88:	e9 2f ff ff ff       	jmpq   2abc <init_driver+0xe7>
    2b8d:	4c 8d 05 7b 08 00 00 	lea    0x87b(%rip),%r8        # 340f <array.0+0x27f>
    2b94:	48 8d 0d 35 09 00 00 	lea    0x935(%rip),%rcx        # 34d0 <array.0+0x340>
    2b9b:	48 c7 c2 ff ff ff ff 	mov    $0xffffffffffffffff,%rdx
    2ba2:	be 01 00 00 00       	mov    $0x1,%esi
    2ba7:	48 89 ef             	mov    %rbp,%rdi
    2baa:	b8 00 00 00 00       	mov    $0x0,%eax
    2baf:	e8 ec e7 ff ff       	callq  13a0 <__sprintf_chk@plt>
    2bb4:	89 df                	mov    %ebx,%edi
    2bb6:	e8 d5 e6 ff ff       	callq  1290 <close@plt>
    2bbb:	b8 ff ff ff ff       	mov    $0xffffffff,%eax
    2bc0:	e9 f7 fe ff ff       	jmpq   2abc <init_driver+0xe7>
    2bc5:	e8 a6 e6 ff ff       	callq  1270 <__stack_chk_fail@plt>

0000000000002bca <driver_post>:
    2bca:	f3 0f 1e fa          	endbr64 
    2bce:	53                   	push   %rbx
    2bcf:	4c 89 c3             	mov    %r8,%rbx
    2bd2:	85 c9                	test   %ecx,%ecx
    2bd4:	75 17                	jne    2bed <driver_post+0x23>
    2bd6:	48 85 ff             	test   %rdi,%rdi
    2bd9:	74 05                	je     2be0 <driver_post+0x16>
    2bdb:	80 3f 00             	cmpb   $0x0,(%rdi)
    2bde:	75 33                	jne    2c13 <driver_post+0x49>
    2be0:	66 c7 03 4f 4b       	movw   $0x4b4f,(%rbx)
    2be5:	c6 43 02 00          	movb   $0x0,0x2(%rbx)
    2be9:	89 c8                	mov    %ecx,%eax
    2beb:	5b                   	pop    %rbx
    2bec:	c3                   	retq   
    2bed:	48 8d 35 20 09 00 00 	lea    0x920(%rip),%rsi        # 3514 <array.0+0x384>
    2bf4:	bf 01 00 00 00       	mov    $0x1,%edi
    2bf9:	b8 00 00 00 00       	mov    $0x0,%eax
    2bfe:	e8 1d e7 ff ff       	callq  1320 <__printf_chk@plt>
    2c03:	66 c7 03 4f 4b       	movw   $0x4b4f,(%rbx)
    2c08:	c6 43 02 00          	movb   $0x0,0x2(%rbx)
    2c0c:	b8 00 00 00 00       	mov    $0x0,%eax
    2c11:	eb d8                	jmp    2beb <driver_post+0x21>
    2c13:	41 50                	push   %r8
    2c15:	52                   	push   %rdx
    2c16:	4c 8d 0d 0e 09 00 00 	lea    0x90e(%rip),%r9        # 352b <array.0+0x39b>
    2c1d:	49 89 f0             	mov    %rsi,%r8
    2c20:	48 89 f9             	mov    %rdi,%rcx
    2c23:	48 8d 15 15 09 00 00 	lea    0x915(%rip),%rdx        # 353f <array.0+0x3af>
    2c2a:	be 6e 3b 00 00       	mov    $0x3b6e,%esi
    2c2f:	48 8d 3d d9 07 00 00 	lea    0x7d9(%rip),%rdi        # 340f <array.0+0x27f>
    2c36:	e8 5d f5 ff ff       	callq  2198 <submitr>
    2c3b:	48 83 c4 10          	add    $0x10,%rsp
    2c3f:	eb aa                	jmp    2beb <driver_post+0x21>
    2c41:	66 2e 0f 1f 84 00 00 	nopw   %cs:0x0(%rax,%rax,1)
    2c48:	00 00 00 
    2c4b:	0f 1f 44 00 00       	nopl   0x0(%rax,%rax,1)

0000000000002c50 <__libc_csu_init>:
    2c50:	f3 0f 1e fa          	endbr64 
    2c54:	41 57                	push   %r15
    2c56:	4c 8d 3d 83 20 00 00 	lea    0x2083(%rip),%r15        # 4ce0 <__frame_dummy_init_array_entry>
    2c5d:	41 56                	push   %r14
    2c5f:	49 89 d6             	mov    %rdx,%r14
    2c62:	41 55                	push   %r13
    2c64:	49 89 f5             	mov    %rsi,%r13
    2c67:	41 54                	push   %r12
    2c69:	41 89 fc             	mov    %edi,%r12d
    2c6c:	55                   	push   %rbp
    2c6d:	48 8d 2d 74 20 00 00 	lea    0x2074(%rip),%rbp        # 4ce8 <__do_global_dtors_aux_fini_array_entry>
    2c74:	53                   	push   %rbx
    2c75:	4c 29 fd             	sub    %r15,%rbp
    2c78:	48 83 ec 08          	sub    $0x8,%rsp
    2c7c:	e8 7f e3 ff ff       	callq  1000 <_init>
    2c81:	48 c1 fd 03          	sar    $0x3,%rbp
    2c85:	74 1f                	je     2ca6 <__libc_csu_init+0x56>
    2c87:	31 db                	xor    %ebx,%ebx
    2c89:	0f 1f 80 00 00 00 00 	nopl   0x0(%rax)
    2c90:	4c 89 f2             	mov    %r14,%rdx
    2c93:	4c 89 ee             	mov    %r13,%rsi
    2c96:	44 89 e7             	mov    %r12d,%edi
    2c99:	41 ff 14 df          	callq  *(%r15,%rbx,8)
    2c9d:	48 83 c3 01          	add    $0x1,%rbx
    2ca1:	48 39 dd             	cmp    %rbx,%rbp
    2ca4:	75 ea                	jne    2c90 <__libc_csu_init+0x40>
    2ca6:	48 83 c4 08          	add    $0x8,%rsp
    2caa:	5b                   	pop    %rbx
    2cab:	5d                   	pop    %rbp
    2cac:	41 5c                	pop    %r12
    2cae:	41 5d                	pop    %r13
    2cb0:	41 5e                	pop    %r14
    2cb2:	41 5f                	pop    %r15
    2cb4:	c3                   	retq   
    2cb5:	66 66 2e 0f 1f 84 00 	data16 nopw %cs:0x0(%rax,%rax,1)
    2cbc:	00 00 00 00 

0000000000002cc0 <__libc_csu_fini>:
    2cc0:	f3 0f 1e fa          	endbr64 
    2cc4:	c3                   	retq   

Disassembly of section .fini:

0000000000002cc8 <_fini>:
    2cc8:	f3 0f 1e fa          	endbr64 
    2ccc:	48 83 ec 08          	sub    $0x8,%rsp
    2cd0:	48 83 c4 08          	add    $0x8,%rsp
    2cd4:	c3                   	retq   
